; ModuleID = 'ComputeNonbondedUtil_opt.bc'
target datalayout = "e-p:64:64:64-i1:8:8-i8:8:8-i16:16:16-i32:32:32-i64:64:64-f32:32:32-f64:64:64-v64:64:64-v128:128:128-a0:0:64-s0:64:64-f80:128:128-n8:16:32:64-S128"
target triple = "x86_64-unknown-linux-gnu"

%class.LJTable = type { i8*, %"struct.LJTable::TableEntry"*, i32 }
%"struct.LJTable::TableEntry" = type { double, double }
%class.Molecule = type { %class.ObjectArena*, %class.ExclusionCheck*, i32, i32, i32* }
%class.ObjectArena = type opaque
%class.ExclusionCheck = type { i32, i32, i8* }
%struct.nonbonded = type { [2 x %struct.CompAtom*], [2 x %class.Vector*], [2 x %class.Vector*], [2 x i32], double*, double*, %class.Vector, i32, i32, i32, i32 }
%struct.CompAtom = type { %class.Vector, float, [4 x i8] }
%class.Vector = type { double, double, double }
%class.SimParameters = type { %class.Vector, %class.Vector, %class.Vector, %class.Vector, i32, i32, double, i32, double, double, double, i32, double, double, i32, double, double, i32, i32, i32, i32, i32, i32, double, double, i32, i32, i32, i32, i32, i32, i32, i32, i32, i32, i32, double, double, i32, double, i32, i32, %class.Lattice }
%class.Lattice = type { %class.Vector, %class.Vector, %class.Vector, %class.Vector, %class.Vector, %class.Vector, %class.Vector, i32, i32, i32 }

@_ZN20ComputeNonbondedUtil8commOnlyE = global i32 0, align 4
@_ZN20ComputeNonbondedUtil12fixedAtomsOnE = global i32 0, align 4
@_ZN20ComputeNonbondedUtil6cutoffE = global float 0.000000e+00, align 4
@_ZN20ComputeNonbondedUtil7cutoff2E = global double 0.000000e+00, align 8
@_ZN20ComputeNonbondedUtil12groupcutoff2E = global double 0.000000e+00, align 8
@_ZN20ComputeNonbondedUtil12dielectric_1E = global double 0.000000e+00, align 8
@_ZN20ComputeNonbondedUtil7ljTableE = global %class.LJTable* null, align 8
@_ZN20ComputeNonbondedUtil3molE = global %class.Molecule* null, align 8
@_ZN20ComputeNonbondedUtil8r2_deltaE = global double 0.000000e+00, align 8
@_ZN20ComputeNonbondedUtil10r2_delta_1E = global double 0.000000e+00, align 8
@_ZN20ComputeNonbondedUtil12r2_delta_expE = global i32 0, align 4
@_ZN20ComputeNonbondedUtil11table_allocE = global double* null, align 8
@_ZN20ComputeNonbondedUtil11table_shortE = global double* null, align 8
@_ZN20ComputeNonbondedUtil13table_noshortE = global double* null, align 8
@_ZN20ComputeNonbondedUtil10fast_tableE = global double* null, align 8
@_ZN20ComputeNonbondedUtil10scor_tableE = global double* null, align 8
@_ZN20ComputeNonbondedUtil10slow_tableE = global double* null, align 8
@_ZN20ComputeNonbondedUtil10corr_tableE = global double* null, align 8
@_ZN20ComputeNonbondedUtil10full_tableE = global double* null, align 8
@_ZN20ComputeNonbondedUtil10vdwa_tableE = global double* null, align 8
@_ZN20ComputeNonbondedUtil10vdwb_tableE = global double* null, align 8
@_ZN20ComputeNonbondedUtil7scalingE = global double 0.000000e+00, align 8
@_ZN20ComputeNonbondedUtil7scale14E = global double 0.000000e+00, align 8
@_ZN20ComputeNonbondedUtil8switchOnE = global float 0.000000e+00, align 4
@_ZN20ComputeNonbondedUtil10switchOn_1E = global double 0.000000e+00, align 8
@_ZN20ComputeNonbondedUtil9switchOn2E = global double 0.000000e+00, align 8
@_ZN20ComputeNonbondedUtil2c0E = global double 0.000000e+00, align 8
@_ZN20ComputeNonbondedUtil2c1E = global double 0.000000e+00, align 8
@_ZN20ComputeNonbondedUtil2c3E = global double 0.000000e+00, align 8
@_ZN20ComputeNonbondedUtil2c5E = global double 0.000000e+00, align 8
@_ZN20ComputeNonbondedUtil2c6E = global double 0.000000e+00, align 8
@_ZN20ComputeNonbondedUtil2c7E = global double 0.000000e+00, align 8
@_ZN20ComputeNonbondedUtil2c8E = global double 0.000000e+00, align 8
@_ZN20ComputeNonbondedUtil5fepOnE = global i32 0, align 4
@_ZN20ComputeNonbondedUtil6lambdaE = global double 0.000000e+00, align 8
@_ZN20ComputeNonbondedUtil7lambda2E = global double 0.000000e+00, align 8
@_ZN20ComputeNonbondedUtil5lesOnE = global i32 0, align 4
@_ZN20ComputeNonbondedUtil9lesFactorE = global i32 0, align 4
@_ZN20ComputeNonbondedUtil10lesScalingE = global double 0.000000e+00, align 8
@_ZN20ComputeNonbondedUtil12lambda_tableE = global double* null, align 8
@_ZN20ComputeNonbondedUtil17pairInteractionOnE = global i32 0, align 4
@_ZN20ComputeNonbondedUtil19pairInteractionSelfE = global i32 0, align 4
@_ZN20ComputeNonbondedUtil24pressureProfileNonbondedE = global i32 0, align 4
@_ZN20ComputeNonbondedUtil20pressureProfileSlabsE = global i32 0, align 4
@_ZN20ComputeNonbondedUtil24pressureProfileThicknessE = global double 0.000000e+00, align 8
@_ZN20ComputeNonbondedUtil18pressureProfileMinE = global double 0.000000e+00, align 8
@_ZN20ComputeNonbondedUtil8ewaldcofE = global double 0.000000e+00, align 8
@_ZN20ComputeNonbondedUtil11pi_ewaldcofE = global double 0.000000e+00, align 8
@_ZN20ComputeNonbondedUtil8calcPairE = global void (%struct.nonbonded*)* null, align 8
@_ZN20ComputeNonbondedUtil14calcPairEnergyE = global void (%struct.nonbonded*)* null, align 8
@_ZN20ComputeNonbondedUtil8calcSelfE = global void (%struct.nonbonded*)* null, align 8
@_ZN20ComputeNonbondedUtil14calcSelfEnergyE = global void (%struct.nonbonded*)* null, align 8
@_ZN20ComputeNonbondedUtil12calcFullPairE = global void (%struct.nonbonded*)* null, align 8
@_ZN20ComputeNonbondedUtil18calcFullPairEnergyE = global void (%struct.nonbonded*)* null, align 8
@_ZN20ComputeNonbondedUtil12calcFullSelfE = global void (%struct.nonbonded*)* null, align 8
@_ZN20ComputeNonbondedUtil18calcFullSelfEnergyE = global void (%struct.nonbonded*)* null, align 8
@_ZN20ComputeNonbondedUtil13calcMergePairE = global void (%struct.nonbonded*)* null, align 8
@_ZN20ComputeNonbondedUtil19calcMergePairEnergyE = global void (%struct.nonbonded*)* null, align 8
@_ZN20ComputeNonbondedUtil13calcMergeSelfE = global void (%struct.nonbonded*)* null, align 8
@_ZN20ComputeNonbondedUtil19calcMergeSelfEnergyE = global void (%struct.nonbonded*)* null, align 8
@_ZN20ComputeNonbondedUtil12calcSlowPairE = global void (%struct.nonbonded*)* null, align 8
@_ZN20ComputeNonbondedUtil18calcSlowPairEnergyE = global void (%struct.nonbonded*)* null, align 8
@_ZN20ComputeNonbondedUtil12calcSlowSelfE = global void (%struct.nonbonded*)* null, align 8
@_ZN20ComputeNonbondedUtil18calcSlowSelfEnergyE = global void (%struct.nonbonded*)* null, align 8
@.str = private unnamed_addr constant [38 x i8] c"Sorry, XPLOR splitting not supported.\00", align 1
@.str1 = private unnamed_addr constant [38 x i8] c"Sorry, SHARP splitting not supported.\00", align 1
@.str2 = private unnamed_addr constant [30 x i8] c"Unknown splitting type found!\00", align 1

; Function Attrs: uwtable
define void @_ZN20ComputeNonbondedUtil6selectEP13SimParametersP8MoleculeP7LJTable(%class.SimParameters* %simParams, %class.Molecule* %molecule, %class.LJTable* %ljTable_in) #0 align 2 {
entry:
  store %class.LJTable* %ljTable_in, %class.LJTable** @_ZN20ComputeNonbondedUtil7ljTableE, align 8, !tbaa !1
  %commOnly = getelementptr inbounds %class.SimParameters* %simParams, i64 0, i32 41
  %0 = load i32* %commOnly, align 4, !tbaa !5
  store i32 %0, i32* @_ZN20ComputeNonbondedUtil8commOnlyE, align 4, !tbaa !11
  %fixedAtomsOn = getelementptr inbounds %class.SimParameters* %simParams, i64 0, i32 31
  %1 = load i32* %fixedAtomsOn, align 4, !tbaa !12
  %tobool = icmp eq i32 %1, 0
  br i1 %tobool, label %land.end, label %land.rhs

land.rhs:                                         ; preds = %entry
  %fixedAtomsForces = getelementptr inbounds %class.SimParameters* %simParams, i64 0, i32 32
  %2 = load i32* %fixedAtomsForces, align 4, !tbaa !13
  %lnot = icmp eq i32 %2, 0
  br label %land.end

land.end:                                         ; preds = %land.rhs, %entry
  %3 = phi i1 [ false, %entry ], [ %lnot, %land.rhs ]
  %conv = zext i1 %3 to i32
  store i32 %conv, i32* @_ZN20ComputeNonbondedUtil12fixedAtomsOnE, align 4, !tbaa !11
  %cutoff = getelementptr inbounds %class.SimParameters* %simParams, i64 0, i32 10
  %4 = load double* %cutoff, align 8, !tbaa !14
  %conv2 = fptrunc double %4 to float
  store float %conv2, float* @_ZN20ComputeNonbondedUtil6cutoffE, align 4, !tbaa !15
  %mul = fmul float %conv2, %conv2
  %conv3 = fpext float %mul to double
  store double %conv3, double* @_ZN20ComputeNonbondedUtil7cutoff2E, align 8, !tbaa !17
  %fepOn = getelementptr inbounds %class.SimParameters* %simParams, i64 0, i32 14
  %5 = load i32* %fepOn, align 4, !tbaa !18
  store i32 %5, i32* @_ZN20ComputeNonbondedUtil5fepOnE, align 4, !tbaa !11
  store double 0.000000e+00, double* @_ZN20ComputeNonbondedUtil7lambda2E, align 8, !tbaa !17
  store double 0.000000e+00, double* @_ZN20ComputeNonbondedUtil6lambdaE, align 8, !tbaa !17
  %lesOn = getelementptr inbounds %class.SimParameters* %simParams, i64 0, i32 25
  %6 = load i32* %lesOn, align 4, !tbaa !19
  store i32 %6, i32* @_ZN20ComputeNonbondedUtil5lesOnE, align 4, !tbaa !11
  store i32 0, i32* @_ZN20ComputeNonbondedUtil9lesFactorE, align 4, !tbaa !11
  store double 0.000000e+00, double* @_ZN20ComputeNonbondedUtil10lesScalingE, align 8, !tbaa !17
  %7 = load double** @_ZN20ComputeNonbondedUtil12lambda_tableE, align 8, !tbaa !1
  %isnull = icmp eq double* %7, null
  br i1 %isnull, label %delete.end, label %delete.notnull

delete.notnull:                                   ; preds = %land.end
  %8 = bitcast double* %7 to i8*
  tail call void @_ZdaPv(i8* %8) #7
  br label %delete.end

delete.end:                                       ; preds = %delete.notnull, %land.end
  store double* null, double** @_ZN20ComputeNonbondedUtil12lambda_tableE, align 8, !tbaa !1
  %pairInteractionOn = getelementptr inbounds %class.SimParameters* %simParams, i64 0, i32 27
  %9 = load i32* %pairInteractionOn, align 4, !tbaa !20
  store i32 %9, i32* @_ZN20ComputeNonbondedUtil17pairInteractionOnE, align 4, !tbaa !11
  %pairInteractionSelf = getelementptr inbounds %class.SimParameters* %simParams, i64 0, i32 30
  %10 = load i32* %pairInteractionSelf, align 4, !tbaa !21
  store i32 %10, i32* @_ZN20ComputeNonbondedUtil19pairInteractionSelfE, align 4, !tbaa !11
  %pressureProfileNonbonded = getelementptr inbounds %class.SimParameters* %simParams, i64 0, i32 20
  %11 = load i32* %pressureProfileNonbonded, align 4, !tbaa !22
  store i32 %11, i32* @_ZN20ComputeNonbondedUtil24pressureProfileNonbondedE, align 4, !tbaa !11
  %tobool4 = icmp eq i32 %11, 0
  br i1 %tobool4, label %if.end, label %if.then

if.then:                                          ; preds = %delete.end
  %pressureProfileSlabs = getelementptr inbounds %class.SimParameters* %simParams, i64 0, i32 21
  %12 = load i32* %pressureProfileSlabs, align 4, !tbaa !23
  store i32 %12, i32* @_ZN20ComputeNonbondedUtil20pressureProfileSlabsE, align 4, !tbaa !11
  %pressureProfileThickness = getelementptr inbounds %class.SimParameters* %simParams, i64 0, i32 24
  %13 = load double* %pressureProfileThickness, align 8, !tbaa !24
  store double %13, double* @_ZN20ComputeNonbondedUtil24pressureProfileThicknessE, align 8, !tbaa !17
  %pressureProfileMin = getelementptr inbounds %class.SimParameters* %simParams, i64 0, i32 23
  %14 = load double* %pressureProfileMin, align 8, !tbaa !25
  store double %14, double* @_ZN20ComputeNonbondedUtil18pressureProfileMinE, align 8, !tbaa !17
  br label %if.end

if.end:                                           ; preds = %if.then, %delete.end
  %15 = load i32* @_ZN20ComputeNonbondedUtil5fepOnE, align 4, !tbaa !11
  %tobool5 = icmp eq i32 %15, 0
  br i1 %tobool5, label %if.else43, label %if.then6

if.then6:                                         ; preds = %if.end
  %lambda = getelementptr inbounds %class.SimParameters* %simParams, i64 0, i32 15
  %16 = load double* %lambda, align 8, !tbaa !26
  store double %16, double* @_ZN20ComputeNonbondedUtil6lambdaE, align 8, !tbaa !17
  %lambda2 = getelementptr inbounds %class.SimParameters* %simParams, i64 0, i32 16
  %17 = load double* %lambda2, align 8, !tbaa !27
  store double %17, double* @_ZN20ComputeNonbondedUtil7lambda2E, align 8, !tbaa !17
  %call = tail call noalias i8* @_Znam(i64 144) #8
  %18 = bitcast i8* %call to double*
  store double* %18, double** @_ZN20ComputeNonbondedUtil12lambda_tableE, align 8, !tbaa !1
  %19 = insertelement <2 x double> undef, double %16, i32 0
  %20 = insertelement <2 x double> %19, double %17, i32 1
  %21 = insertelement <2 x double> undef, double %16, i32 0
  %22 = insertelement <2 x double> %21, double %17, i32 1
  br label %for.cond7.preheader

for.cond7.preheader:                              ; preds = %if.end31.2, %if.then6
  %23 = phi double [ %17, %if.then6 ], [ %.375, %if.end31.2 ]
  %24 = phi double [ %16, %if.then6 ], [ %.376, %if.end31.2 ]
  %25 = phi double [ %17, %if.then6 ], [ %251, %if.end31.2 ]
  %26 = phi double [ %16, %if.then6 ], [ %252, %if.end31.2 ]
  %indvars.iv359 = phi i64 [ 0, %if.then6 ], [ %indvars.iv.next360, %if.end31.2 ]
  %27 = trunc i64 %indvars.iv359 to i32
  %notlhs = icmp eq i32 %27, 0
  %cmp18 = icmp eq i32 %27, 1
  %cmp23 = icmp eq i32 %27, 2
  br i1 %notlhs, label %if.then12.1, label %if.else

if.else:                                          ; preds = %for.cond7.preheader
  br i1 %cmp18, label %if.then12.1, label %if.else22

if.else22:                                        ; preds = %if.else
  br i1 %cmp23, label %if.then26, label %if.then12.1

if.then26:                                        ; preds = %if.else22
  %28 = fsub <2 x double> <double 1.000000e+00, double 1.000000e+00>, %20
  br label %if.then12.1

for.end42:                                        ; preds = %if.end31.2
  store void (%struct.nonbonded*)* @_ZN20ComputeNonbondedUtil20calc_pair_energy_fepEP9nonbonded, void (%struct.nonbonded*)** @_ZN20ComputeNonbondedUtil14calcPairEnergyE, align 8, !tbaa !1
  store void (%struct.nonbonded*)* @_ZN20ComputeNonbondedUtil20calc_self_energy_fepEP9nonbonded, void (%struct.nonbonded*)** @_ZN20ComputeNonbondedUtil14calcSelfEnergyE, align 8, !tbaa !1
  store void (%struct.nonbonded*)* @_ZN20ComputeNonbondedUtil30calc_pair_energy_fullelect_fepEP9nonbonded, void (%struct.nonbonded*)** @_ZN20ComputeNonbondedUtil18calcFullPairEnergyE, align 8, !tbaa !1
  store void (%struct.nonbonded*)* @_ZN20ComputeNonbondedUtil30calc_self_energy_fullelect_fepEP9nonbonded, void (%struct.nonbonded*)** @_ZN20ComputeNonbondedUtil18calcFullSelfEnergyE, align 8, !tbaa !1
  store void (%struct.nonbonded*)* @_ZN20ComputeNonbondedUtil36calc_pair_energy_merge_fullelect_fepEP9nonbonded, void (%struct.nonbonded*)** @_ZN20ComputeNonbondedUtil19calcMergePairEnergyE, align 8, !tbaa !1
  store void (%struct.nonbonded*)* @_ZN20ComputeNonbondedUtil36calc_self_energy_merge_fullelect_fepEP9nonbonded, void (%struct.nonbonded*)** @_ZN20ComputeNonbondedUtil19calcMergeSelfEnergyE, align 8, !tbaa !1
  store void (%struct.nonbonded*)* @_ZN20ComputeNonbondedUtil35calc_pair_energy_slow_fullelect_fepEP9nonbonded, void (%struct.nonbonded*)** @_ZN20ComputeNonbondedUtil18calcSlowPairEnergyE, align 8, !tbaa !1
  store void (%struct.nonbonded*)* @_ZN20ComputeNonbondedUtil35calc_self_energy_slow_fullelect_fepEP9nonbonded, void (%struct.nonbonded*)** @_ZN20ComputeNonbondedUtil18calcSlowSelfEnergyE, align 8, !tbaa !1
  br label %if.end92

if.else43:                                        ; preds = %if.end
  %29 = load i32* @_ZN20ComputeNonbondedUtil5lesOnE, align 4, !tbaa !11
  %tobool44 = icmp eq i32 %29, 0
  br i1 %tobool44, label %if.else84, label %if.then45

if.then45:                                        ; preds = %if.else43
  %lesFactor = getelementptr inbounds %class.SimParameters* %simParams, i64 0, i32 26
  %30 = load i32* %lesFactor, align 4, !tbaa !28
  store i32 %30, i32* @_ZN20ComputeNonbondedUtil9lesFactorE, align 4, !tbaa !11
  %conv46 = sitofp i32 %30 to double
  %div = fdiv double 1.000000e+00, %conv46
  store double %div, double* @_ZN20ComputeNonbondedUtil10lesScalingE, align 8, !tbaa !17
  %add47 = add nsw i32 %30, 1
  %mul49 = mul nsw i32 %add47, %add47
  %31 = zext i32 %mul49 to i64
  %umul_with_overflow = shl nuw nsw i64 %31, 3
  %call50 = tail call noalias i8* @_Znam(i64 %umul_with_overflow) #8
  %32 = bitcast i8* %call50 to double*
  store double* %32, double** @_ZN20ComputeNonbondedUtil12lambda_tableE, align 8, !tbaa !1
  %cmp53317 = icmp slt i32 %30, 0
  br i1 %cmp53317, label %for.end83, label %for.body58.lr.ph.preheader

for.body58.lr.ph.preheader:                       ; preds = %if.then45
  %33 = zext i32 %30 to i64
  %34 = add i64 %33, 1
  %35 = zext i32 %30 to i64
  %36 = add i64 %35, 1
  br label %for.body58.lr.ph

for.body58.lr.ph:                                 ; preds = %for.inc81, %for.body58.lr.ph.preheader
  %indvars.iv351 = phi i64 [ %indvars.iv.next352, %for.inc81 ], [ 0, %for.body58.lr.ph.preheader ]
  %37 = trunc i64 %indvars.iv351 to i32
  %mul74 = mul nsw i32 %add47, %37
  %notlhs279 = icmp eq i32 %37, 0
  %38 = sext i32 %mul74 to i64
  br i1 %notlhs279, label %for.body58.us.preheader, label %for.body58.preheader

for.body58.us.preheader:                          ; preds = %for.body58.lr.ph
  %end.idx455 = add i64 %35, 1
  %n.vec457 = and i64 %36, 8589934588
  %cmp.zero459 = icmp eq i64 %n.vec457, 0
  br i1 %cmp.zero459, label %middle.block452, label %vector.ph450

vector.ph450:                                     ; preds = %for.body58.us.preheader
  %broadcast.splatinsert472 = insertelement <2 x double> undef, double %div, i32 0
  %broadcast.splat473 = shufflevector <2 x double> %broadcast.splatinsert472, <2 x double> undef, <2 x i32> zeroinitializer
  br label %vector.body451

vector.body451:                                   ; preds = %vector.body451, %vector.ph450
  %index454 = phi i64 [ 0, %vector.ph450 ], [ %index.next463, %vector.body451 ]
  %39 = trunc i64 %index454 to i32
  %broadcast.splatinsert468 = insertelement <2 x i32> undef, i32 %39, i32 0
  %broadcast.splat469 = shufflevector <2 x i32> %broadcast.splatinsert468, <2 x i32> undef, <2 x i32> zeroinitializer
  %induction470 = add <2 x i32> %broadcast.splat469, <i32 0, i32 1>
  %induction471 = add <2 x i32> %broadcast.splat469, <i32 2, i32 3>
  %40 = icmp eq <2 x i32> %induction470, zeroinitializer
  %41 = icmp eq <2 x i32> %induction471, zeroinitializer
  %42 = select <2 x i1> %40, <2 x double> <double 1.000000e+00, double 1.000000e+00>, <2 x double> %broadcast.splat473
  %43 = select <2 x i1> %41, <2 x double> <double 1.000000e+00, double 1.000000e+00>, <2 x double> %broadcast.splat473
  %44 = add i64 %38, %index454
  %45 = getelementptr inbounds double* %32, i64 %44
  %46 = bitcast double* %45 to <2 x double>*
  store <2 x double> %42, <2 x double>* %46, align 8
  %.sum = add i64 %44, 2
  %47 = getelementptr double* %32, i64 %.sum
  %48 = bitcast double* %47 to <2 x double>*
  store <2 x double> %43, <2 x double>* %48, align 8
  %index.next463 = add i64 %index454, 4
  %49 = icmp eq i64 %index.next463, %n.vec457
  br i1 %49, label %middle.block452, label %vector.body451, !llvm.loop !29

middle.block452:                                  ; preds = %vector.body451, %for.body58.us.preheader
  %resume.val460 = phi i64 [ 0, %for.body58.us.preheader ], [ %n.vec457, %vector.body451 ]
  %cmp.n462 = icmp eq i64 %end.idx455, %resume.val460
  br i1 %cmp.n462, label %for.inc81, label %for.body58.us

for.body58.preheader:                             ; preds = %for.body58.lr.ph
  %end.idx425 = add i64 %33, 1
  %n.vec427 = and i64 %34, 8589934590
  %cmp.zero429 = icmp eq i64 %n.vec427, 0
  br i1 %cmp.zero429, label %middle.block422, label %vector.ph420

vector.ph420:                                     ; preds = %for.body58.preheader
  %broadcast.splatinsert440 = insertelement <2 x i64> undef, i64 %indvars.iv351, i32 0
  %broadcast.splat441 = shufflevector <2 x i64> %broadcast.splatinsert440, <2 x i64> undef, <2 x i32> zeroinitializer
  %broadcast.splatinsert442 = insertelement <2 x i32> undef, i32 %37, i32 0
  %broadcast.splat443 = shufflevector <2 x i32> %broadcast.splatinsert442, <2 x i32> undef, <2 x i32> zeroinitializer
  %broadcast.splatinsert444 = insertelement <2 x double> undef, double %div, i32 0
  %broadcast.splat445 = shufflevector <2 x double> %broadcast.splatinsert444, <2 x double> undef, <2 x i32> zeroinitializer
  br label %vector.body421

vector.body421:                                   ; preds = %vector.body421, %vector.ph420
  %index424 = phi i64 [ 0, %vector.ph420 ], [ %index.next433, %vector.body421 ]
  %broadcast.splatinsert434 = insertelement <2 x i64> undef, i64 %index424, i32 0
  %broadcast.splat435 = shufflevector <2 x i64> %broadcast.splatinsert434, <2 x i64> undef, <2 x i32> zeroinitializer
  %induction436 = add <2 x i64> %broadcast.splat435, <i64 0, i64 1>
  %50 = trunc i64 %index424 to i32
  %broadcast.splatinsert437 = insertelement <2 x i32> undef, i32 %50, i32 0
  %broadcast.splat438 = shufflevector <2 x i32> %broadcast.splatinsert437, <2 x i32> undef, <2 x i32> zeroinitializer
  %induction439 = add <2 x i32> %broadcast.splat438, <i32 0, i32 1>
  %51 = or <2 x i64> %induction436, %broadcast.splat441
  %52 = trunc <2 x i64> %51 to <2 x i32>
  %53 = icmp eq <2 x i32> %52, zeroinitializer
  %54 = icmp eq <2 x i32> %induction439, zeroinitializer
  %55 = icmp eq <2 x i32> %broadcast.splat443, %induction439
  %56 = or <2 x i1> %54, %55
  %57 = select <2 x i1> %56, <2 x double> %broadcast.splat445, <2 x double> zeroinitializer
  %predphi = select <2 x i1> %53, <2 x double> <double 1.000000e+00, double 1.000000e+00>, <2 x double> %57
  %58 = add i64 %38, %index424
  %59 = getelementptr inbounds double* %32, i64 %58
  %60 = bitcast double* %59 to <2 x double>*
  store <2 x double> %predphi, <2 x double>* %60, align 8
  %index.next433 = add i64 %index424, 2
  %61 = icmp eq i64 %index.next433, %n.vec427
  br i1 %61, label %middle.block422, label %vector.body421, !llvm.loop !32

middle.block422:                                  ; preds = %vector.body421, %for.body58.preheader
  %resume.val430 = phi i64 [ 0, %for.body58.preheader ], [ %n.vec427, %vector.body421 ]
  %cmp.n432 = icmp eq i64 %end.idx425, %resume.val430
  br i1 %cmp.n432, label %for.inc81, label %for.body58

for.body58.us:                                    ; preds = %for.body58.us, %middle.block452
  %indvars.iv346 = phi i64 [ %indvars.iv.next347, %for.body58.us ], [ %resume.val460, %middle.block452 ]
  %62 = trunc i64 %indvars.iv346 to i32
  %63 = icmp eq i32 %62, 0
  %.div = select i1 %63, double 1.000000e+00, double %div
  %64 = add nsw i64 %38, %indvars.iv346
  %arrayidx77.us = getelementptr inbounds double* %32, i64 %64
  store double %.div, double* %arrayidx77.us, align 8, !tbaa !17
  %indvars.iv.next347 = add nuw nsw i64 %indvars.iv346, 1
  %lftr.wideiv349 = trunc i64 %indvars.iv.next347 to i32
  %exitcond350 = icmp eq i32 %lftr.wideiv349, %add47
  br i1 %exitcond350, label %for.inc81, label %for.body58.us, !llvm.loop !33

for.body58:                                       ; preds = %if.end72, %middle.block422
  %indvars.iv341 = phi i64 [ %indvars.iv.next342, %if.end72 ], [ %resume.val430, %middle.block422 ]
  %65 = trunc i64 %indvars.iv341 to i32
  %66 = or i64 %indvars.iv341, %indvars.iv351
  %67 = trunc i64 %66 to i32
  %68 = icmp eq i32 %67, 0
  br i1 %68, label %if.end72, label %if.then63

if.then63:                                        ; preds = %for.body58
  %notrhs280 = icmp eq i32 %65, 0
  %cmp68 = icmp eq i32 %37, %65
  %or.cond277 = or i1 %notrhs280, %cmp68
  %.278 = select i1 %or.cond277, double %div, double 0.000000e+00
  br label %if.end72

if.end72:                                         ; preds = %if.then63, %for.body58
  %lambda_pair59.0 = phi double [ 1.000000e+00, %for.body58 ], [ %.278, %if.then63 ]
  %69 = add nsw i64 %38, %indvars.iv341
  %arrayidx77 = getelementptr inbounds double* %32, i64 %69
  store double %lambda_pair59.0, double* %arrayidx77, align 8, !tbaa !17
  %indvars.iv.next342 = add nuw nsw i64 %indvars.iv341, 1
  %lftr.wideiv344 = trunc i64 %indvars.iv.next342 to i32
  %exitcond345 = icmp eq i32 %lftr.wideiv344, %add47
  br i1 %exitcond345, label %for.inc81, label %for.body58, !llvm.loop !34

for.inc81:                                        ; preds = %if.end72, %for.body58.us, %middle.block422, %middle.block452
  %indvars.iv.next352 = add nuw nsw i64 %indvars.iv351, 1
  %cmp53 = icmp slt i32 %37, %30
  br i1 %cmp53, label %for.body58.lr.ph, label %for.end83

for.end83:                                        ; preds = %for.inc81, %if.then45
  store void (%struct.nonbonded*)* @_ZN20ComputeNonbondedUtil13calc_pair_lesEP9nonbonded, void (%struct.nonbonded*)** @_ZN20ComputeNonbondedUtil8calcPairE, align 8, !tbaa !1
  store void (%struct.nonbonded*)* @_ZN20ComputeNonbondedUtil20calc_pair_energy_lesEP9nonbonded, void (%struct.nonbonded*)** @_ZN20ComputeNonbondedUtil14calcPairEnergyE, align 8, !tbaa !1
  store void (%struct.nonbonded*)* @_ZN20ComputeNonbondedUtil13calc_self_lesEP9nonbonded, void (%struct.nonbonded*)** @_ZN20ComputeNonbondedUtil8calcSelfE, align 8, !tbaa !1
  store void (%struct.nonbonded*)* @_ZN20ComputeNonbondedUtil20calc_self_energy_lesEP9nonbonded, void (%struct.nonbonded*)** @_ZN20ComputeNonbondedUtil14calcSelfEnergyE, align 8, !tbaa !1
  store void (%struct.nonbonded*)* @_ZN20ComputeNonbondedUtil23calc_pair_fullelect_lesEP9nonbonded, void (%struct.nonbonded*)** @_ZN20ComputeNonbondedUtil12calcFullPairE, align 8, !tbaa !1
  store void (%struct.nonbonded*)* @_ZN20ComputeNonbondedUtil30calc_pair_energy_fullelect_lesEP9nonbonded, void (%struct.nonbonded*)** @_ZN20ComputeNonbondedUtil18calcFullPairEnergyE, align 8, !tbaa !1
  store void (%struct.nonbonded*)* @_ZN20ComputeNonbondedUtil23calc_self_fullelect_lesEP9nonbonded, void (%struct.nonbonded*)** @_ZN20ComputeNonbondedUtil12calcFullSelfE, align 8, !tbaa !1
  store void (%struct.nonbonded*)* @_ZN20ComputeNonbondedUtil30calc_self_energy_fullelect_lesEP9nonbonded, void (%struct.nonbonded*)** @_ZN20ComputeNonbondedUtil18calcFullSelfEnergyE, align 8, !tbaa !1
  store void (%struct.nonbonded*)* @_ZN20ComputeNonbondedUtil29calc_pair_merge_fullelect_lesEP9nonbonded, void (%struct.nonbonded*)** @_ZN20ComputeNonbondedUtil13calcMergePairE, align 8, !tbaa !1
  store void (%struct.nonbonded*)* @_ZN20ComputeNonbondedUtil36calc_pair_energy_merge_fullelect_lesEP9nonbonded, void (%struct.nonbonded*)** @_ZN20ComputeNonbondedUtil19calcMergePairEnergyE, align 8, !tbaa !1
  store void (%struct.nonbonded*)* @_ZN20ComputeNonbondedUtil29calc_self_merge_fullelect_lesEP9nonbonded, void (%struct.nonbonded*)** @_ZN20ComputeNonbondedUtil13calcMergeSelfE, align 8, !tbaa !1
  store void (%struct.nonbonded*)* @_ZN20ComputeNonbondedUtil36calc_self_energy_merge_fullelect_lesEP9nonbonded, void (%struct.nonbonded*)** @_ZN20ComputeNonbondedUtil19calcMergeSelfEnergyE, align 8, !tbaa !1
  store void (%struct.nonbonded*)* @_ZN20ComputeNonbondedUtil28calc_pair_slow_fullelect_lesEP9nonbonded, void (%struct.nonbonded*)** @_ZN20ComputeNonbondedUtil12calcSlowPairE, align 8, !tbaa !1
  store void (%struct.nonbonded*)* @_ZN20ComputeNonbondedUtil35calc_pair_energy_slow_fullelect_lesEP9nonbonded, void (%struct.nonbonded*)** @_ZN20ComputeNonbondedUtil18calcSlowPairEnergyE, align 8, !tbaa !1
  store void (%struct.nonbonded*)* @_ZN20ComputeNonbondedUtil28calc_self_slow_fullelect_lesEP9nonbonded, void (%struct.nonbonded*)** @_ZN20ComputeNonbondedUtil12calcSlowSelfE, align 8, !tbaa !1
  store void (%struct.nonbonded*)* @_ZN20ComputeNonbondedUtil35calc_self_energy_slow_fullelect_lesEP9nonbonded, void (%struct.nonbonded*)** @_ZN20ComputeNonbondedUtil18calcSlowSelfEnergyE, align 8, !tbaa !1
  br label %if.end92

if.else84:                                        ; preds = %if.else43
  %70 = or i32 %11, %9
  %71 = icmp eq i32 %70, 0
  br i1 %71, label %if.else89, label %if.then88

if.then88:                                        ; preds = %if.else84
  store void (%struct.nonbonded*)* null, void (%struct.nonbonded*)** @_ZN20ComputeNonbondedUtil14calcPairEnergyE, align 8, !tbaa !1
  store void (%struct.nonbonded*)* null, void (%struct.nonbonded*)** @_ZN20ComputeNonbondedUtil14calcSelfEnergyE, align 8, !tbaa !1
  br label %if.end92

if.else89:                                        ; preds = %if.else84
  store void (%struct.nonbonded*)* @_ZN20ComputeNonbondedUtil9calc_pairEP9nonbonded, void (%struct.nonbonded*)** @_ZN20ComputeNonbondedUtil8calcPairE, align 8, !tbaa !1
  store void (%struct.nonbonded*)* @_ZN20ComputeNonbondedUtil16calc_pair_energyEP9nonbonded, void (%struct.nonbonded*)** @_ZN20ComputeNonbondedUtil14calcPairEnergyE, align 8, !tbaa !1
  store void (%struct.nonbonded*)* @_ZN20ComputeNonbondedUtil9calc_selfEP9nonbonded, void (%struct.nonbonded*)** @_ZN20ComputeNonbondedUtil8calcSelfE, align 8, !tbaa !1
  store void (%struct.nonbonded*)* @_ZN20ComputeNonbondedUtil16calc_self_energyEP9nonbonded, void (%struct.nonbonded*)** @_ZN20ComputeNonbondedUtil14calcSelfEnergyE, align 8, !tbaa !1
  store void (%struct.nonbonded*)* @_ZN20ComputeNonbondedUtil19calc_pair_fullelectEP9nonbonded, void (%struct.nonbonded*)** @_ZN20ComputeNonbondedUtil12calcFullPairE, align 8, !tbaa !1
  store void (%struct.nonbonded*)* @_ZN20ComputeNonbondedUtil26calc_pair_energy_fullelectEP9nonbonded, void (%struct.nonbonded*)** @_ZN20ComputeNonbondedUtil18calcFullPairEnergyE, align 8, !tbaa !1
  store void (%struct.nonbonded*)* @_ZN20ComputeNonbondedUtil19calc_self_fullelectEP9nonbonded, void (%struct.nonbonded*)** @_ZN20ComputeNonbondedUtil12calcFullSelfE, align 8, !tbaa !1
  store void (%struct.nonbonded*)* @_ZN20ComputeNonbondedUtil26calc_self_energy_fullelectEP9nonbonded, void (%struct.nonbonded*)** @_ZN20ComputeNonbondedUtil18calcFullSelfEnergyE, align 8, !tbaa !1
  store void (%struct.nonbonded*)* @_ZN20ComputeNonbondedUtil25calc_pair_merge_fullelectEP9nonbonded, void (%struct.nonbonded*)** @_ZN20ComputeNonbondedUtil13calcMergePairE, align 8, !tbaa !1
  store void (%struct.nonbonded*)* @_ZN20ComputeNonbondedUtil32calc_pair_energy_merge_fullelectEP9nonbonded, void (%struct.nonbonded*)** @_ZN20ComputeNonbondedUtil19calcMergePairEnergyE, align 8, !tbaa !1
  store void (%struct.nonbonded*)* @_ZN20ComputeNonbondedUtil25calc_self_merge_fullelectEP9nonbonded, void (%struct.nonbonded*)** @_ZN20ComputeNonbondedUtil13calcMergeSelfE, align 8, !tbaa !1
  store void (%struct.nonbonded*)* @_ZN20ComputeNonbondedUtil32calc_self_energy_merge_fullelectEP9nonbonded, void (%struct.nonbonded*)** @_ZN20ComputeNonbondedUtil19calcMergeSelfEnergyE, align 8, !tbaa !1
  store void (%struct.nonbonded*)* @_ZN20ComputeNonbondedUtil24calc_pair_slow_fullelectEP9nonbonded, void (%struct.nonbonded*)** @_ZN20ComputeNonbondedUtil12calcSlowPairE, align 8, !tbaa !1
  store void (%struct.nonbonded*)* @_ZN20ComputeNonbondedUtil31calc_pair_energy_slow_fullelectEP9nonbonded, void (%struct.nonbonded*)** @_ZN20ComputeNonbondedUtil18calcSlowPairEnergyE, align 8, !tbaa !1
  store void (%struct.nonbonded*)* @_ZN20ComputeNonbondedUtil24calc_self_slow_fullelectEP9nonbonded, void (%struct.nonbonded*)** @_ZN20ComputeNonbondedUtil12calcSlowSelfE, align 8, !tbaa !1
  store void (%struct.nonbonded*)* @_ZN20ComputeNonbondedUtil31calc_self_energy_slow_fullelectEP9nonbonded, void (%struct.nonbonded*)** @_ZN20ComputeNonbondedUtil18calcSlowSelfEnergyE, align 8, !tbaa !1
  br label %if.end92

if.end92:                                         ; preds = %if.else89, %if.then88, %for.end83, %for.end42
  %hgroupCutoff = getelementptr inbounds %class.SimParameters* %simParams, i64 0, i32 39
  %72 = load float* @_ZN20ComputeNonbondedUtil6cutoffE, align 4, !tbaa !15
  %conv93 = fpext float %72 to double
  %73 = load double* %hgroupCutoff, align 8, !tbaa !17
  %add94 = fadd double %conv93, %73
  %mul97 = fmul double %add94, %add94
  store double %mul97, double* @_ZN20ComputeNonbondedUtil12groupcutoff2E, align 8, !tbaa !17
  %dielectric = getelementptr inbounds %class.SimParameters* %simParams, i64 0, i32 6
  %74 = load double* %dielectric, align 8, !tbaa !35
  %div98 = fdiv double 1.000000e+00, %74
  store double %div98, double* @_ZN20ComputeNonbondedUtil12dielectric_1E, align 8, !tbaa !17
  store %class.Molecule* %molecule, %class.Molecule** @_ZN20ComputeNonbondedUtil3molE, align 8, !tbaa !1
  %nonbondedScaling = getelementptr inbounds %class.SimParameters* %simParams, i64 0, i32 9
  %75 = load double* %nonbondedScaling, align 8, !tbaa !36
  store double %75, double* @_ZN20ComputeNonbondedUtil7scalingE, align 8, !tbaa !17
  %exclude = getelementptr inbounds %class.SimParameters* %simParams, i64 0, i32 7
  %76 = load i32* %exclude, align 4, !tbaa !37
  %cmp99 = icmp eq i32 %76, 4
  br i1 %cmp99, label %if.then100, label %if.end102

if.then100:                                       ; preds = %if.end92
  %scale14 = getelementptr inbounds %class.SimParameters* %simParams, i64 0, i32 8
  %77 = load double* %scale14, align 8, !tbaa !38
  br label %if.end102

if.end102:                                        ; preds = %if.then100, %if.end92
  %storemerge = phi double [ %77, %if.then100 ], [ 1.000000e+00, %if.end92 ]
  store double %storemerge, double* @_ZN20ComputeNonbondedUtil7scale14E, align 8, !tbaa !17
  %switchingActive = getelementptr inbounds %class.SimParameters* %simParams, i64 0, i32 11
  %78 = load i32* %switchingActive, align 4, !tbaa !39
  %tobool103 = icmp eq i32 %78, 0
  br i1 %tobool103, label %if.else112, label %if.then104

if.then104:                                       ; preds = %if.end102
  %switchingDist = getelementptr inbounds %class.SimParameters* %simParams, i64 0, i32 12
  %79 = load double* %switchingDist, align 8, !tbaa !40
  %conv105 = fptrunc double %79 to float
  store float %conv105, float* @_ZN20ComputeNonbondedUtil8switchOnE, align 4, !tbaa !15
  %conv106 = fpext float %conv105 to double
  %div107 = fdiv double 1.000000e+00, %conv106
  store double %div107, double* @_ZN20ComputeNonbondedUtil10switchOn_1E, align 8, !tbaa !17
  %mul108 = fmul float %conv105, %conv105
  %conv109 = fpext float %mul108 to double
  store double %conv109, double* @_ZN20ComputeNonbondedUtil9switchOn2E, align 8, !tbaa !17
  %80 = load double* @_ZN20ComputeNonbondedUtil7cutoff2E, align 8, !tbaa !17
  %sub110 = fsub double %80, %conv109
  %div111 = fdiv double 1.000000e+00, %sub110
  br label %if.end117

if.else112:                                       ; preds = %if.end102
  store float %72, float* @_ZN20ComputeNonbondedUtil8switchOnE, align 4, !tbaa !15
  %div114 = fdiv double 1.000000e+00, %conv93
  store double %div114, double* @_ZN20ComputeNonbondedUtil10switchOn_1E, align 8, !tbaa !17
  %mul115 = fmul float %72, %72
  %conv116 = fpext float %mul115 to double
  store double %conv116, double* @_ZN20ComputeNonbondedUtil9switchOn2E, align 8, !tbaa !17
  br label %if.end117

if.end117:                                        ; preds = %if.else112, %if.then104
  %81 = phi double [ %conv116, %if.else112 ], [ %conv109, %if.then104 ]
  %storemerge268 = phi double [ 0.000000e+00, %if.else112 ], [ %div111, %if.then104 ]
  store double %storemerge268, double* @_ZN20ComputeNonbondedUtil2c0E, align 8, !tbaa !17
  %mul118 = fmul double %storemerge268, %storemerge268
  %mul119 = fmul double %storemerge268, %mul118
  store double %mul119, double* @_ZN20ComputeNonbondedUtil2c1E, align 8, !tbaa !17
  %82 = load double* @_ZN20ComputeNonbondedUtil7cutoff2E, align 8, !tbaa !17
  %sub120 = fsub double %82, %81
  %mul121 = fmul double %sub120, 3.000000e+00
  store double %mul121, double* @_ZN20ComputeNonbondedUtil2c3E, align 8, !tbaa !17
  store double 0.000000e+00, double* @_ZN20ComputeNonbondedUtil2c5E, align 8, !tbaa !17
  store double 0.000000e+00, double* @_ZN20ComputeNonbondedUtil2c6E, align 8, !tbaa !17
  store double 0.000000e+00, double* @_ZN20ComputeNonbondedUtil2c7E, align 8, !tbaa !17
  store double 0.000000e+00, double* @_ZN20ComputeNonbondedUtil2c8E, align 8, !tbaa !17
  %PMEOn122 = getelementptr inbounds %class.SimParameters* %simParams, i64 0, i32 35
  %83 = load i32* %PMEOn122, align 4, !tbaa !41
  %tobool123 = icmp ne i32 %83, 0
  br i1 %tobool123, label %if.then124, label %if.end126

if.then124:                                       ; preds = %if.end117
  %PMEEwaldCoefficient = getelementptr inbounds %class.SimParameters* %simParams, i64 0, i32 37
  %84 = load double* %PMEEwaldCoefficient, align 8, !tbaa !42
  store double %84, double* @_ZN20ComputeNonbondedUtil8ewaldcofE, align 8, !tbaa !17
  %mul125 = fmul double %84, 0x3FF20DD750429B61
  store double %mul125, double* @_ZN20ComputeNonbondedUtil11pi_ewaldcofE, align 8, !tbaa !17
  br label %if.end126

if.end126:                                        ; preds = %if.then124, %if.end117
  %tobool128 = icmp ne i32 %78, 0
  %. = select i1 %tobool128, i32 2, i32 1
  %fullDirectOn = getelementptr inbounds %class.SimParameters* %simParams, i64 0, i32 34
  %85 = load i32* %fullDirectOn, align 4, !tbaa !43
  %tobool131 = icmp eq i32 %85, 0
  br i1 %tobool131, label %lor.lhs.false132, label %if.then136

lor.lhs.false132:                                 ; preds = %if.end126
  %FMAOn = getelementptr inbounds %class.SimParameters* %simParams, i64 0, i32 33
  %86 = load i32* %FMAOn, align 4, !tbaa !44
  %87 = or i32 %86, %83
  %88 = icmp eq i32 %87, 0
  br i1 %88, label %if.end139, label %if.then136

if.then136:                                       ; preds = %lor.lhs.false132, %if.end126
  %longSplitting = getelementptr inbounds %class.SimParameters* %simParams, i64 0, i32 38
  %89 = load i32* %longSplitting, align 4, !tbaa !45
  switch i32 %89, label %sw.default [
    i32 2, label %if.end139
    i32 1, label %sw.bb137
    i32 0, label %sw.bb138
  ]

sw.bb137:                                         ; preds = %if.then136
  tail call void @_Z8NAMD_diePKc(i8* getelementptr inbounds ([38 x i8]* @.str, i64 0, i64 0))
  br label %if.end139

sw.bb138:                                         ; preds = %if.then136
  tail call void @_Z8NAMD_diePKc(i8* getelementptr inbounds ([38 x i8]* @.str1, i64 0, i64 0))
  br label %if.end139

sw.default:                                       ; preds = %if.then136
  tail call void @_Z8NAMD_diePKc(i8* getelementptr inbounds ([30 x i8]* @.str2, i64 0, i64 0))
  br label %if.end139

if.end139:                                        ; preds = %sw.default, %sw.bb138, %sw.bb137, %if.then136, %lor.lhs.false132
  %splitType.0 = phi i32 [ %., %sw.default ], [ %., %sw.bb138 ], [ %., %sw.bb137 ], [ %., %lor.lhs.false132 ], [ 3, %if.then136 ]
  store double 6.250000e-02, double* @_ZN20ComputeNonbondedUtil8r2_deltaE, align 8, !tbaa !17
  store i32 4, i32* @_ZN20ComputeNonbondedUtil12r2_delta_expE, align 4, !tbaa !11
  store double 1.600000e+01, double* @_ZN20ComputeNonbondedUtil10r2_delta_1E, align 8, !tbaa !17
  %90 = load double* @_ZN20ComputeNonbondedUtil7cutoff2E, align 8, !tbaa !17
  %cmp145311 = fcmp ogt double %90, 1.000000e+00
  br i1 %cmp145311, label %while.body146, label %while.end149

while.body146:                                    ; preds = %while.body146, %if.end139
  %r2_tmp.0313 = phi double [ %mul147, %while.body146 ], [ 1.000000e+00, %if.end139 ]
  %cutoff2_exp.0312 = phi i32 [ %add148, %while.body146 ], [ 0, %if.end139 ]
  %mul147 = fmul double %r2_tmp.0313, 2.000000e+00
  %add148 = add nsw i32 %cutoff2_exp.0312, 1
  %cmp145 = fcmp ogt double %90, %mul147
  br i1 %cmp145, label %while.body146, label %while.cond144.while.end149_crit_edge

while.cond144.while.end149_crit_edge:             ; preds = %while.body146
  %phitmp371 = add i32 %cutoff2_exp.0312, 5
  br label %while.end149

while.end149:                                     ; preds = %while.cond144.while.end149_crit_edge, %if.end139
  %cutoff2_exp.0.lcssa = phi i32 [ %phitmp371, %while.cond144.while.end149_crit_edge ], [ 4, %if.end139 ]
  %mul151 = shl nsw i32 %cutoff2_exp.0.lcssa, 6
  %add152270 = or i32 %mul151, 1
  %91 = load double** @_ZN20ComputeNonbondedUtil11table_allocE, align 8, !tbaa !1
  %tobool153 = icmp eq double* %91, null
  br i1 %tobool153, label %if.end158, label %delete.notnull156

delete.notnull156:                                ; preds = %while.end149
  %92 = bitcast double* %91 to i8*
  tail call void @_ZdaPv(i8* %92) #7
  br label %if.end158

if.end158:                                        ; preds = %delete.notnull156, %while.end149
  %mul159 = mul nsw i32 %add152270, 60
  %add160 = add nsw i32 %mul159, 16
  %93 = sext i32 %add160 to i64
  %94 = tail call { i64, i1 } @llvm.umul.with.overflow.i64(i64 %93, i64 8)
  %95 = extractvalue { i64, i1 } %94, 1
  %96 = extractvalue { i64, i1 } %94, 0
  %97 = select i1 %95, i64 -1, i64 %96
  %call161 = tail call noalias i8* @_Znam(i64 %97) #8
  %98 = bitcast i8* %call161 to double*
  store double* %98, double** @_ZN20ComputeNonbondedUtil11table_allocE, align 8, !tbaa !1
  br label %while.cond162

while.cond162:                                    ; preds = %while.cond162, %if.end158
  %table_align.0 = phi double* [ %98, %if.end158 ], [ %incdec.ptr, %while.cond162 ]
  %99 = ptrtoint double* %table_align.0 to i64
  %rem271 = and i64 %99, 127
  %tobool163 = icmp eq i64 %rem271, 0
  %incdec.ptr = getelementptr inbounds double* %table_align.0, i64 1
  br i1 %tobool163, label %while.end165, label %while.cond162

while.end165:                                     ; preds = %while.cond162
  store double* %table_align.0, double** @_ZN20ComputeNonbondedUtil13table_noshortE, align 8, !tbaa !1
  %mul166 = shl nsw i32 %add152270, 4
  %idx.ext = sext i32 %mul166 to i64
  %add.ptr = getelementptr inbounds double* %table_align.0, i64 %idx.ext
  store double* %add.ptr, double** @_ZN20ComputeNonbondedUtil11table_shortE, align 8, !tbaa !1
  %mul167 = shl nsw i32 %add152270, 5
  %idx.ext168 = sext i32 %mul167 to i64
  %add.ptr169 = getelementptr inbounds double* %table_align.0, i64 %idx.ext168
  store double* %add.ptr169, double** @_ZN20ComputeNonbondedUtil10slow_tableE, align 8, !tbaa !1
  %mul170 = mul nsw i32 %add152270, 36
  %idx.ext171 = sext i32 %mul170 to i64
  %add.ptr172 = getelementptr inbounds double* %table_align.0, i64 %idx.ext171
  store double* %add.ptr172, double** @_ZN20ComputeNonbondedUtil10fast_tableE, align 8, !tbaa !1
  %mul173 = mul nsw i32 %add152270, 40
  %idx.ext174 = sext i32 %mul173 to i64
  %add.ptr175 = getelementptr inbounds double* %table_align.0, i64 %idx.ext174
  store double* %add.ptr175, double** @_ZN20ComputeNonbondedUtil10scor_tableE, align 8, !tbaa !1
  %mul176 = mul nsw i32 %add152270, 44
  %idx.ext177 = sext i32 %mul176 to i64
  %add.ptr178 = getelementptr inbounds double* %table_align.0, i64 %idx.ext177
  store double* %add.ptr178, double** @_ZN20ComputeNonbondedUtil10corr_tableE, align 8, !tbaa !1
  %mul179 = mul nsw i32 %add152270, 48
  %idx.ext180 = sext i32 %mul179 to i64
  %add.ptr181 = getelementptr inbounds double* %table_align.0, i64 %idx.ext180
  store double* %add.ptr181, double** @_ZN20ComputeNonbondedUtil10full_tableE, align 8, !tbaa !1
  %mul182 = mul nsw i32 %add152270, 52
  %idx.ext183 = sext i32 %mul182 to i64
  %add.ptr184 = getelementptr inbounds double* %table_align.0, i64 %idx.ext183
  store double* %add.ptr184, double** @_ZN20ComputeNonbondedUtil10vdwa_tableE, align 8, !tbaa !1
  %mul185 = mul nsw i32 %add152270, 56
  %idx.ext186 = sext i32 %mul185 to i64
  %add.ptr187 = getelementptr inbounds double* %table_align.0, i64 %idx.ext186
  store double* %add.ptr187, double** @_ZN20ComputeNonbondedUtil10vdwb_tableE, align 8, !tbaa !1
  %cmp189298 = icmp sgt i32 %add152270, 0
  br i1 %cmp189298, label %for.body190.lr.ph, label %for.cond312.preheader

for.body190.lr.ph:                                ; preds = %while.end165
  %100 = shl i32 %cutoff2_exp.0.lcssa, 6
  %101 = or i32 %100, 1
  br label %for.body190

for.cond188.for.cond312.preheader_crit_edge:      ; preds = %cond.end275
  %.pre = load double** @_ZN20ComputeNonbondedUtil10fast_tableE, align 8, !tbaa !1
  %.pre365 = load double** @_ZN20ComputeNonbondedUtil10scor_tableE, align 8, !tbaa !1
  %.pre366 = load double** @_ZN20ComputeNonbondedUtil10slow_tableE, align 8, !tbaa !1
  %.pre367 = load double** @_ZN20ComputeNonbondedUtil10vdwa_tableE, align 8, !tbaa !1
  %.pre368 = load double** @_ZN20ComputeNonbondedUtil10vdwb_tableE, align 8, !tbaa !1
  br label %for.cond312.preheader

for.cond312.preheader:                            ; preds = %for.cond188.for.cond312.preheader_crit_edge, %while.end165
  %102 = phi double* [ %.pre368, %for.cond188.for.cond312.preheader_crit_edge ], [ %add.ptr187, %while.end165 ]
  %103 = phi double* [ %.pre367, %for.cond188.for.cond312.preheader_crit_edge ], [ %add.ptr184, %while.end165 ]
  %104 = phi double* [ %.pre366, %for.cond188.for.cond312.preheader_crit_edge ], [ %add.ptr169, %while.end165 ]
  %105 = phi double* [ %.pre365, %for.cond188.for.cond312.preheader_crit_edge ], [ %add.ptr175, %while.end165 ]
  %106 = phi double* [ %.pre, %for.cond188.for.cond312.preheader_crit_edge ], [ %add.ptr172, %while.end165 ]
  %cmp323289 = icmp sgt i32 %cutoff2_exp.0.lcssa, 0
  br i1 %cmp323289, label %for.body314.us, label %for.cond443.preheader

for.body314.us:                                   ; preds = %for.inc440.us, %for.cond312.preheader
  %j.0297.us = phi i32 [ %inc441.us, %for.inc440.us ], [ 0, %for.cond312.preheader ]
  switch i32 %j.0297.us, label %for.body324.lr.ph.us [
    i32 0, label %sw.bb315.us
    i32 1, label %sw.bb316.us
    i32 2, label %sw.bb317.us
    i32 3, label %sw.bb318.us
    i32 4, label %sw.bb319.us
  ]

sw.bb319.us:                                      ; preds = %for.body314.us
  br label %for.body324.lr.ph.us

sw.bb318.us:                                      ; preds = %for.body314.us
  br label %for.body324.lr.ph.us

sw.bb317.us:                                      ; preds = %for.body314.us
  br label %for.body324.lr.ph.us

sw.bb316.us:                                      ; preds = %for.body314.us
  br label %for.body324.lr.ph.us

sw.bb315.us:                                      ; preds = %for.body314.us
  br label %for.body324.lr.ph.us

for.inc440.us:                                    ; preds = %for.body324.us
  %inc441.us = add nsw i32 %j.0297.us, 1
  %exitcond364 = icmp eq i32 %inc441.us, 5
  br i1 %exitcond364, label %for.cond443.preheader, label %for.body314.us

for.body324.us:                                   ; preds = %for.body324.lr.ph.us, %for.body324.us
  %107 = phi double [ %.pre369, %for.body324.lr.ph.us ], [ %110, %for.body324.us ]
  %t.0291.us = phi double* [ %t0.0.us, %for.body324.lr.ph.us ], [ %arrayidx332.us, %for.body324.us ]
  %i.1290.us = phi i32 [ 0, %for.body324.lr.ph.us ], [ %inc386.us, %for.body324.us ]
  %108 = load double* @_ZN20ComputeNonbondedUtil8r2_deltaE, align 8, !tbaa !17
  %div325.us = sdiv i32 %i.1290.us, 64
  %shl326.us = shl i32 1, %div325.us
  %conv327.us = sitofp i32 %shl326.us to double
  %mul328.us = fmul double %108, %conv327.us
  %div329.us = fmul double %mul328.us, 1.562500e-02
  %arrayidx331.us = getelementptr inbounds double* %t.0291.us, i64 1
  %109 = load double* %arrayidx331.us, align 8, !tbaa !17
  %arrayidx332.us = getelementptr inbounds double* %t.0291.us, i64 4
  %110 = load double* %arrayidx332.us, align 8, !tbaa !17
  %arrayidx333.us = getelementptr inbounds double* %t.0291.us, i64 5
  %111 = load double* %arrayidx333.us, align 8, !tbaa !17
  %sub334.us = fsub double %110, %107
  %mul335.us = fmul double %sub334.us, 3.000000e+00
  %mul336.us = fmul double %109, 2.000000e+00
  %add337.us = fadd double %mul336.us, %111
  %mul338.us = fmul double %div329.us, %add337.us
  %sub339.us = fsub double %mul335.us, %mul338.us
  %mul340.us = fmul double %div329.us, %div329.us
  %mul343.us = fmul double %sub334.us, -2.000000e+00
  %add344.us = fadd double %109, %111
  %mul345.us = fmul double %div329.us, %add344.us
  %add346.us = fadd double %mul343.us, %mul345.us
  %mul348.us = fmul double %div329.us, %mul340.us
  %112 = insertelement <2 x double> undef, double %sub339.us, i32 0
  %113 = insertelement <2 x double> %112, double %add346.us, i32 1
  %114 = insertelement <2 x double> undef, double %mul340.us, i32 0
  %115 = insertelement <2 x double> %114, double %mul348.us, i32 1
  %116 = fdiv <2 x double> %113, %115
  %sub353.us = fsub double %107, %110
  %sub360.us = fsub double %109, %111
  %117 = extractelement <2 x double> %116, i32 1
  %mul354.us = fmul double %div329.us, %117
  %118 = extractelement <2 x double> %116, i32 0
  %add355.us = fadd double %118, %mul354.us
  %mul356.us = fmul double %div329.us, %add355.us
  %add357.us = fadd double %109, %mul356.us
  %mul358.us = fmul double %div329.us, %add357.us
  %add359.us = fadd double %sub353.us, %mul358.us
  %mul361.us = fmul double %117, 3.000000e+00
  %mul362.us = fmul double %div329.us, %mul361.us
  %mul363.us = fmul double %118, 2.000000e+00
  %add364.us = fadd double %mul363.us, %mul362.us
  %mul365.us = fmul double %div329.us, %add364.us
  %add366.us = fadd double %sub360.us, %mul365.us
  %mul367.us = fmul double %add359.us, 3.000000e+00
  %mul368.us = fmul double %div329.us, %add366.us
  %sub369.us = fsub double %mul367.us, %mul368.us
  %mul373.us = fmul double %add359.us, -2.000000e+00
  %add375.us = fadd double %mul368.us, %mul373.us
  %119 = insertelement <2 x double> undef, double %sub369.us, i32 0
  %120 = insertelement <2 x double> %119, double %add375.us, i32 1
  %121 = fdiv <2 x double> %120, %115
  %122 = fsub <2 x double> %116, %121
  %123 = extractelement <2 x double> %122, i32 1
  %mul354.us.1 = fmul double %div329.us, %123
  %124 = extractelement <2 x double> %122, i32 0
  %add355.us.1 = fadd double %124, %mul354.us.1
  %mul356.us.1 = fmul double %div329.us, %add355.us.1
  %add357.us.1 = fadd double %109, %mul356.us.1
  %mul358.us.1 = fmul double %div329.us, %add357.us.1
  %add359.us.1 = fadd double %sub353.us, %mul358.us.1
  %mul361.us.1 = fmul double %123, 3.000000e+00
  %mul362.us.1 = fmul double %div329.us, %mul361.us.1
  %mul363.us.1 = fmul double %124, 2.000000e+00
  %add364.us.1 = fadd double %mul363.us.1, %mul362.us.1
  %mul365.us.1 = fmul double %div329.us, %add364.us.1
  %add366.us.1 = fadd double %sub360.us, %mul365.us.1
  %mul367.us.1 = fmul double %add359.us.1, 3.000000e+00
  %mul368.us.1 = fmul double %div329.us, %add366.us.1
  %sub369.us.1 = fsub double %mul367.us.1, %mul368.us.1
  %mul373.us.1 = fmul double %add359.us.1, -2.000000e+00
  %add375.us.1 = fadd double %mul368.us.1, %mul373.us.1
  %125 = insertelement <2 x double> undef, double %sub369.us.1, i32 0
  %126 = insertelement <2 x double> %125, double %add375.us.1, i32 1
  %127 = fdiv <2 x double> %126, %115
  %128 = fsub <2 x double> %122, %127
  %arrayidx383.us = getelementptr inbounds double* %t.0291.us, i64 2
  %129 = bitcast double* %arrayidx383.us to <2 x double>*
  store <2 x double> %128, <2 x double>* %129, align 8, !tbaa !17
  %inc386.us = add nsw i32 %i.1290.us, 1
  %cmp323.us = icmp slt i32 %inc386.us, %mul151
  br i1 %cmp323.us, label %for.body324.us, label %for.inc440.us

for.body324.lr.ph.us:                             ; preds = %sw.bb315.us, %sw.bb316.us, %sw.bb317.us, %sw.bb318.us, %sw.bb319.us, %for.body314.us
  %t0.0.us = phi double* [ null, %for.body314.us ], [ %102, %sw.bb319.us ], [ %103, %sw.bb318.us ], [ %104, %sw.bb317.us ], [ %105, %sw.bb316.us ], [ %106, %sw.bb315.us ]
  %.pre369 = load double* %t0.0.us, align 8, !tbaa !17
  br label %for.body324.us

for.body190:                                      ; preds = %cond.end275, %for.body190.lr.ph
  %i.0310 = phi i32 [ 0, %for.body190.lr.ph ], [ %inc310, %cond.end275 ]
  %fast_i.0309 = phi double* [ %add.ptr172, %for.body190.lr.ph ], [ %incdec.ptr292, %cond.end275 ]
  %scor_i.0308 = phi double* [ %add.ptr175, %for.body190.lr.ph ], [ %incdec.ptr296, %cond.end275 ]
  %slow_i.0307 = phi double* [ %add.ptr169, %for.body190.lr.ph ], [ %incdec.ptr300, %cond.end275 ]
  %vdwa_i.0306 = phi double* [ %add.ptr184, %for.body190.lr.ph ], [ %incdec.ptr304, %cond.end275 ]
  %vdwb_i.0305 = phi double* [ %add.ptr187, %for.body190.lr.ph ], [ %incdec.ptr308, %cond.end275 ]
  %fast_energy.0304 = phi double [ undef, %for.body190.lr.ph ], [ %fast_energy.1, %cond.end275 ]
  %fast_gradient.0303 = phi double [ undef, %for.body190.lr.ph ], [ %mul253, %cond.end275 ]
  %scor_energy.0302 = phi double [ undef, %for.body190.lr.ph ], [ %scor_energy.1, %cond.end275 ]
  %scor_gradient.0301 = phi double [ undef, %for.body190.lr.ph ], [ %mul255, %cond.end275 ]
  %slow_energy.0300 = phi double [ undef, %for.body190.lr.ph ], [ %slow_energy.1, %cond.end275 ]
  %slow_gradient.0299 = phi double [ undef, %for.body190.lr.ph ], [ %mul257, %cond.end275 ]
  %130 = load double* @_ZN20ComputeNonbondedUtil8r2_deltaE, align 8, !tbaa !17
  %div191 = sdiv i32 %i.0310, 64
  %shl = shl i32 1, %div191
  %conv192 = sitofp i32 %shl to double
  %mul193 = fmul double %130, %conv192
  %div194 = fmul double %mul193, 1.562500e-02
  %rem195 = srem i32 %i.0310, 64
  %conv196 = sitofp i32 %rem195 to double
  %mul197 = fmul double %conv196, %div194
  %add198 = fadd double %mul193, %mul197
  %call199 = tail call double @sqrt(double %add198) #6
  %div200 = fdiv double 1.000000e+00, %call199
  %div201 = fdiv double 1.000000e+00, %add198
  br i1 %tobool123, label %if.then203, label %if.end213

if.then203:                                       ; preds = %for.body190
  %131 = load double* @_ZN20ComputeNonbondedUtil8ewaldcofE, align 8, !tbaa !17
  %mul204 = fmul double %call199, %131
  %call205 = tail call double @erfc(double %mul204) #6
  %132 = load double* @_ZN20ComputeNonbondedUtil11pi_ewaldcofE, align 8, !tbaa !17
  %mul206 = fmul double %mul204, %mul204
  %sub207 = fsub double -0.000000e+00, %mul206
  %call208 = tail call double @exp(double %sub207) #6
  %mul209 = fmul double %132, %call208
  %mul210 = fmul double %call199, %mul209
  %add211 = fadd double %call205, %mul210
  %phitmp = fadd double %call205, -1.000000e+00
  %phitmp275 = fadd double %add211, -1.000000e+00
  br label %if.end213

if.end213:                                        ; preds = %if.then203, %for.body190
  %corr_gradient.0 = phi double [ %phitmp275, %if.then203 ], [ -1.000000e+00, %for.body190 ]
  %corr_energy.0 = phi double [ %phitmp, %if.then203 ], [ -1.000000e+00, %for.body190 ]
  switch i32 %splitType.0, label %sw.epilog251 [
    i32 1, label %sw.bb214
    i32 2, label %sw.bb217
    i32 3, label %sw.bb231
  ]

sw.bb214:                                         ; preds = %if.end213
  %div216 = fdiv double -1.000000e+00, %add198
  br label %sw.epilog251

sw.bb217:                                         ; preds = %if.end213
  %133 = load double* @_ZN20ComputeNonbondedUtil7cutoff2E, align 8, !tbaa !17
  %div218 = fdiv double %add198, %133
  %sub219 = fadd double %div218, -1.000000e+00
  %mul220 = fmul double %sub219, %sub219
  %mul223 = fmul double %sub219, 2.000000e+00
  %mul224 = fmul double %mul223, 2.000000e+00
  %mul225 = fmul double %call199, %mul224
  %div226 = fdiv double %mul225, %133
  %div227 = fdiv double %mul220, %call199
  %div228 = fdiv double %div226, %call199
  %div229 = fdiv double %mul220, %add198
  %sub230 = fsub double %div228, %div229
  br label %sw.epilog251

sw.bb231:                                         ; preds = %if.end213
  %134 = load float* @_ZN20ComputeNonbondedUtil6cutoffE, align 4, !tbaa !15
  %conv232 = fpext float %134 to double
  %div233 = fdiv double 5.000000e-01, %conv232
  %135 = load double* @_ZN20ComputeNonbondedUtil7cutoff2E, align 8, !tbaa !17
  %div234 = fdiv double %add198, %135
  %sub235 = fsub double 3.000000e+00, %div234
  %mul236 = fmul double %div233, %sub235
  %div237 = fdiv double -1.000000e+00, %135
  %div239 = fdiv double %call199, %conv232
  %mul240 = fmul double %div237, %div239
  %div242 = fdiv double %corr_energy.0, %call199
  %add243 = fadd double %mul236, %div242
  %div245 = fdiv double %corr_gradient.0, %add198
  %sub246 = fsub double %mul240, %div245
  %sub248 = fsub double %div200, %mul236
  %div249 = fdiv double -1.000000e+00, %add198
  %sub250 = fsub double %div249, %mul240
  br label %sw.epilog251

sw.epilog251:                                     ; preds = %sw.bb231, %sw.bb217, %sw.bb214, %if.end213
  %slow_gradient.1 = phi double [ %slow_gradient.0299, %if.end213 ], [ %mul240, %sw.bb231 ], [ 0.000000e+00, %sw.bb217 ], [ 0.000000e+00, %sw.bb214 ]
  %slow_energy.1 = phi double [ %slow_energy.0300, %if.end213 ], [ %mul236, %sw.bb231 ], [ 0.000000e+00, %sw.bb217 ], [ 0.000000e+00, %sw.bb214 ]
  %scor_gradient.1 = phi double [ %scor_gradient.0301, %if.end213 ], [ %sub246, %sw.bb231 ], [ 0.000000e+00, %sw.bb217 ], [ 0.000000e+00, %sw.bb214 ]
  %scor_energy.1 = phi double [ %scor_energy.0302, %if.end213 ], [ %add243, %sw.bb231 ], [ 0.000000e+00, %sw.bb217 ], [ 0.000000e+00, %sw.bb214 ]
  %fast_gradient.1 = phi double [ %fast_gradient.0303, %if.end213 ], [ %sub250, %sw.bb231 ], [ %sub230, %sw.bb217 ], [ %div216, %sw.bb214 ]
  %fast_energy.1 = phi double [ %fast_energy.0304, %if.end213 ], [ %sub248, %sw.bb231 ], [ %div227, %sw.bb217 ], [ %div200, %sw.bb214 ]
  %mul252 = fmul double %div200, 5.000000e-01
  %mul253 = fmul double %mul252, %fast_gradient.1
  %mul255 = fmul double %mul252, %scor_gradient.1
  %mul257 = fmul double %mul252, %slow_gradient.1
  %mul258 = fmul double %div201, %div201
  %mul259 = fmul double %div201, %mul258
  %mul260 = fmul double %mul259, %mul259
  %136 = load double* @_ZN20ComputeNonbondedUtil7cutoff2E, align 8, !tbaa !17
  %sub261 = fsub double %136, %add198
  %137 = load double* @_ZN20ComputeNonbondedUtil2c3E, align 8, !tbaa !17
  %mul262 = fmul double %sub261, 2.000000e+00
  %sub263 = fsub double %137, %mul262
  %mul264 = fmul double %sub261, %sub263
  %138 = load double* @_ZN20ComputeNonbondedUtil9switchOn2E, align 8, !tbaa !17
  %cmp265 = fcmp ogt double %add198, %138
  br i1 %cmp265, label %cond.true269, label %cond.end275

cond.true269:                                     ; preds = %sw.epilog251
  %mul266 = fmul double %sub261, %mul264
  %139 = load double* @_ZN20ComputeNonbondedUtil2c1E, align 8, !tbaa !17
  %mul267 = fmul double %mul266, %139
  %mul270 = fmul double %139, 2.000000e+00
  %mul271 = fmul double %sub261, %sub261
  %sub272 = fsub double %mul271, %mul264
  %mul273 = fmul double %sub272, %mul270
  br label %cond.end275

cond.end275:                                      ; preds = %cond.true269, %sw.epilog251
  %cond372 = phi double [ %mul267, %cond.true269 ], [ 1.000000e+00, %sw.epilog251 ]
  %cond276 = phi double [ %mul273, %cond.true269 ], [ 0.000000e+00, %sw.epilog251 ]
  %mul279 = fmul double %cond372, 6.000000e+00
  %mul280 = fmul double %div201, %mul279
  %sub281 = fsub double %cond276, %mul280
  %mul282 = fmul double %cond372, %sub281
  %140 = insertelement <2 x double> undef, double %mul260, i32 0
  %141 = insertelement <2 x double> %140, double %mul260, i32 1
  %142 = insertelement <2 x double> undef, double %cond372, i32 0
  %143 = insertelement <2 x double> %142, double %mul282, i32 1
  %144 = fmul <2 x double> %141, %143
  %mul284 = fmul double %cond372, 3.000000e+00
  %mul285 = fmul double %div201, %mul284
  %sub286 = fsub double %cond276, %mul285
  %mul287 = fmul double %cond372, %sub286
  %145 = insertelement <2 x double> undef, double %mul259, i32 0
  %146 = insertelement <2 x double> %145, double %mul259, i32 1
  %147 = insertelement <2 x double> %142, double %mul287, i32 1
  %148 = fmul <2 x double> %146, %147
  %incdec.ptr289 = getelementptr inbounds double* %fast_i.0309, i64 1
  store double %fast_energy.1, double* %fast_i.0309, align 8, !tbaa !17
  %incdec.ptr290 = getelementptr inbounds double* %fast_i.0309, i64 2
  store double %mul253, double* %incdec.ptr289, align 8, !tbaa !17
  %incdec.ptr292 = getelementptr inbounds double* %fast_i.0309, i64 4
  %incdec.ptr293 = getelementptr inbounds double* %scor_i.0308, i64 1
  %149 = bitcast double* %incdec.ptr290 to i8*
  call void @llvm.memset.p0i8.i64(i8* %149, i8 0, i64 16, i32 8, i1 false)
  store double %scor_energy.1, double* %scor_i.0308, align 8, !tbaa !17
  %incdec.ptr294 = getelementptr inbounds double* %scor_i.0308, i64 2
  store double %mul255, double* %incdec.ptr293, align 8, !tbaa !17
  %incdec.ptr296 = getelementptr inbounds double* %scor_i.0308, i64 4
  %incdec.ptr297 = getelementptr inbounds double* %slow_i.0307, i64 1
  %150 = bitcast double* %incdec.ptr294 to i8*
  call void @llvm.memset.p0i8.i64(i8* %150, i8 0, i64 16, i32 8, i1 false)
  store double %slow_energy.1, double* %slow_i.0307, align 8, !tbaa !17
  %incdec.ptr298 = getelementptr inbounds double* %slow_i.0307, i64 2
  store double %mul257, double* %incdec.ptr297, align 8, !tbaa !17
  %incdec.ptr300 = getelementptr inbounds double* %slow_i.0307, i64 4
  %151 = bitcast double* %incdec.ptr298 to i8*
  call void @llvm.memset.p0i8.i64(i8* %151, i8 0, i64 16, i32 8, i1 false)
  %incdec.ptr302 = getelementptr inbounds double* %vdwa_i.0306, i64 2
  %152 = bitcast double* %vdwa_i.0306 to <2 x double>*
  store <2 x double> %144, <2 x double>* %152, align 8, !tbaa !17
  %incdec.ptr304 = getelementptr inbounds double* %vdwa_i.0306, i64 4
  %153 = bitcast double* %incdec.ptr302 to i8*
  call void @llvm.memset.p0i8.i64(i8* %153, i8 0, i64 16, i32 8, i1 false)
  %incdec.ptr306 = getelementptr inbounds double* %vdwb_i.0305, i64 2
  %154 = bitcast double* %vdwb_i.0305 to <2 x double>*
  store <2 x double> %148, <2 x double>* %154, align 8, !tbaa !17
  %incdec.ptr308 = getelementptr inbounds double* %vdwb_i.0305, i64 4
  %inc310 = add nsw i32 %i.0310, 1
  %exitcond339 = icmp eq i32 %inc310, %101
  %155 = bitcast double* %incdec.ptr306 to i8*
  call void @llvm.memset.p0i8.i64(i8* %155, i8 0, i64 16, i32 8, i1 false)
  br i1 %exitcond339, label %for.cond188.for.cond312.preheader_crit_edge, label %for.body190

for.cond443.preheader:                            ; preds = %for.inc440.us, %for.cond312.preheader
  %mul444 = shl nsw i32 %add152270, 2
  br i1 %cmp189298, label %for.body446.lr.ph, label %for.end538

for.body446.lr.ph:                                ; preds = %for.cond443.preheader
  %156 = load double** @_ZN20ComputeNonbondedUtil10corr_tableE, align 8, !tbaa !1
  %157 = load double** @_ZN20ComputeNonbondedUtil10full_tableE, align 8, !tbaa !1
  %158 = shl i32 %cutoff2_exp.0.lcssa, 8
  %159 = or i32 %158, 4
  %160 = icmp sgt i32 %159, 1
  %.op = add i32 %159, -1
  %161 = zext i32 %.op to i64
  %.op478 = add i64 %161, 1
  %162 = select i1 %160, i64 %.op478, i64 1
  %n.vec = and i64 %162, -2
  %cmp.zero = icmp eq i64 %n.vec, 0
  %163 = shl i32 %cutoff2_exp.0.lcssa, 8
  %164 = or i32 %163, 4
  %165 = icmp sgt i32 %164, 1
  %.op479 = add i32 %164, -1
  %166 = zext i32 %.op479 to i64
  %167 = select i1 %165, i64 %166, i64 0
  %scevgep = getelementptr double* %156, i64 %167
  %scevgep384 = getelementptr double* %157, i64 %167
  %scevgep386 = getelementptr double* %106, i64 %167
  %scevgep388 = getelementptr double* %105, i64 %167
  %scevgep390 = getelementptr double* %104, i64 %167
  br i1 %cmp.zero, label %middle.block, label %vector.memcheck

vector.memcheck:                                  ; preds = %for.body446.lr.ph
  %bound1393 = icmp ule double* %106, %scevgep
  %bound0392 = icmp ule double* %156, %scevgep386
  %bound1 = icmp ule double* %157, %scevgep
  %bound0 = icmp ule double* %156, %scevgep384
  %bound1396 = icmp ule double* %105, %scevgep
  %bound0395 = icmp ule double* %156, %scevgep388
  %found.conflict394 = and i1 %bound0392, %bound1393
  %found.conflict = and i1 %bound0, %bound1
  %bound1400 = icmp ule double* %104, %scevgep
  %bound0399 = icmp ule double* %156, %scevgep390
  %found.conflict397 = and i1 %bound0395, %bound1396
  %conflict.rdx = or i1 %found.conflict, %found.conflict394
  %bound1404 = icmp ule double* %106, %scevgep384
  %bound0403 = icmp ule double* %157, %scevgep386
  %found.conflict401 = and i1 %bound0399, %bound1400
  %conflict.rdx398 = or i1 %conflict.rdx, %found.conflict397
  %bound1408 = icmp ule double* %105, %scevgep384
  %bound0407 = icmp ule double* %157, %scevgep388
  %found.conflict405 = and i1 %bound0403, %bound1404
  %conflict.rdx402 = or i1 %conflict.rdx398, %found.conflict401
  %bound1412 = icmp ule double* %104, %scevgep384
  %bound0411 = icmp ule double* %157, %scevgep390
  %found.conflict409 = and i1 %bound0407, %bound1408
  %conflict.rdx406 = or i1 %conflict.rdx402, %found.conflict405
  %found.conflict413 = and i1 %bound0411, %bound1412
  %conflict.rdx410 = or i1 %conflict.rdx406, %found.conflict409
  %conflict.rdx414 = or i1 %conflict.rdx410, %found.conflict413
  br i1 %conflict.rdx414, label %middle.block, label %vector.body

vector.body:                                      ; preds = %vector.body, %vector.memcheck
  %index = phi i64 [ %index.next, %vector.body ], [ 0, %vector.memcheck ]
  %168 = getelementptr inbounds double* %106, i64 %index
  %169 = bitcast double* %168 to <2 x double>*
  %wide.load = load <2 x double>* %169, align 8
  %170 = getelementptr inbounds double* %105, i64 %index
  %171 = bitcast double* %170 to <2 x double>*
  %wide.load415 = load <2 x double>* %171, align 8
  %172 = fadd <2 x double> %wide.load, %wide.load415
  %173 = getelementptr inbounds double* %156, i64 %index
  %174 = bitcast double* %173 to <2 x double>*
  store <2 x double> %172, <2 x double>* %174, align 8
  %175 = bitcast double* %168 to <2 x double>*
  %wide.load416 = load <2 x double>* %175, align 8
  %176 = getelementptr inbounds double* %104, i64 %index
  %177 = bitcast double* %176 to <2 x double>*
  %wide.load417 = load <2 x double>* %177, align 8
  %178 = fadd <2 x double> %wide.load416, %wide.load417
  %179 = getelementptr inbounds double* %157, i64 %index
  %180 = bitcast double* %179 to <2 x double>*
  store <2 x double> %178, <2 x double>* %180, align 8
  %index.next = add i64 %index, 2
  %181 = icmp eq i64 %index.next, %n.vec
  br i1 %181, label %middle.block, label %vector.body, !llvm.loop !46

middle.block:                                     ; preds = %vector.body, %vector.memcheck, %for.body446.lr.ph
  %resume.val = phi i64 [ 0, %for.body446.lr.ph ], [ 0, %vector.memcheck ], [ %n.vec, %vector.body ]
  %cmp.n = icmp eq i64 %162, %resume.val
  br i1 %cmp.n, label %for.cond464.preheader, label %for.body446

for.cond464.preheader:                            ; preds = %for.body446, %middle.block
  br i1 %cmp189298, label %for.cond468.preheader.lr.ph, label %for.end538

for.cond468.preheader.lr.ph:                      ; preds = %for.cond464.preheader
  %182 = load double** @_ZN20ComputeNonbondedUtil13table_noshortE, align 8, !tbaa !1
  %183 = load double** @_ZN20ComputeNonbondedUtil11table_shortE, align 8, !tbaa !1
  %184 = load double** @_ZN20ComputeNonbondedUtil10corr_tableE, align 8, !tbaa !1
  %185 = load double** @_ZN20ComputeNonbondedUtil10full_tableE, align 8, !tbaa !1
  %186 = shl i32 %cutoff2_exp.0.lcssa, 6
  %187 = or i32 %186, 1
  br label %for.cond468.preheader

for.body446:                                      ; preds = %for.body446, %middle.block
  %indvars.iv336 = phi i64 [ %indvars.iv.next337, %for.body446 ], [ %resume.val, %middle.block ]
  %arrayidx448 = getelementptr inbounds double* %106, i64 %indvars.iv336
  %188 = load double* %arrayidx448, align 8, !tbaa !17
  %arrayidx450 = getelementptr inbounds double* %105, i64 %indvars.iv336
  %189 = load double* %arrayidx450, align 8, !tbaa !17
  %add451 = fadd double %188, %189
  %arrayidx453 = getelementptr inbounds double* %156, i64 %indvars.iv336
  store double %add451, double* %arrayidx453, align 8, !tbaa !17
  %190 = load double* %arrayidx448, align 8, !tbaa !17
  %arrayidx457 = getelementptr inbounds double* %104, i64 %indvars.iv336
  %191 = load double* %arrayidx457, align 8, !tbaa !17
  %add458 = fadd double %190, %191
  %arrayidx460 = getelementptr inbounds double* %157, i64 %indvars.iv336
  store double %add458, double* %arrayidx460, align 8, !tbaa !17
  %indvars.iv.next337 = add nuw nsw i64 %indvars.iv336, 1
  %192 = trunc i64 %indvars.iv.next337 to i32
  %cmp445 = icmp slt i32 %192, %mul444
  br i1 %cmp445, label %for.body446, label %for.cond464.preheader, !llvm.loop !47

for.cond468.preheader:                            ; preds = %for.cond468.preheader, %for.cond468.preheader.lr.ph
  %indvars.iv = phi i64 [ 0, %for.cond468.preheader.lr.ph ], [ %indvars.iv.next, %for.cond468.preheader ]
  %193 = trunc i64 %indvars.iv to i32
  %mul471 = shl i32 %193, 2
  %mul475 = shl nsw i32 %193, 4
  %add488272 = or i32 %mul475, 4
  %add502273 = or i32 %mul475, 8
  %add511274 = or i32 %mul475, 12
  %194 = sext i32 %add511274 to i64
  %195 = sext i32 %add502273 to i64
  %196 = sext i32 %add488272 to i64
  %197 = sext i32 %mul475 to i64
  %198 = sext i32 %mul471 to i64
  %arrayidx474 = getelementptr inbounds double* %103, i64 %198
  %199 = load double* %arrayidx474, align 8, !tbaa !17
  %arrayidx478 = getelementptr inbounds double* %182, i64 %197
  store double %199, double* %arrayidx478, align 8, !tbaa !17
  %arrayidx482 = getelementptr inbounds double* %183, i64 %197
  store double %199, double* %arrayidx482, align 8, !tbaa !17
  %arrayidx486 = getelementptr inbounds double* %102, i64 %198
  %200 = load double* %arrayidx486, align 8, !tbaa !17
  %arrayidx491 = getelementptr inbounds double* %182, i64 %196
  store double %200, double* %arrayidx491, align 8, !tbaa !17
  %arrayidx496 = getelementptr inbounds double* %183, i64 %196
  store double %200, double* %arrayidx496, align 8, !tbaa !17
  %arrayidx500 = getelementptr inbounds double* %106, i64 %198
  %201 = load double* %arrayidx500, align 8, !tbaa !17
  %arrayidx505 = getelementptr inbounds double* %183, i64 %195
  store double %201, double* %arrayidx505, align 8, !tbaa !17
  %arrayidx509 = getelementptr inbounds double* %105, i64 %198
  %202 = load double* %arrayidx509, align 8, !tbaa !17
  %arrayidx514 = getelementptr inbounds double* %183, i64 %194
  store double %202, double* %arrayidx514, align 8, !tbaa !17
  %arrayidx518 = getelementptr inbounds double* %184, i64 %198
  %203 = load double* %arrayidx518, align 8, !tbaa !17
  %arrayidx523 = getelementptr inbounds double* %182, i64 %195
  store double %203, double* %arrayidx523, align 8, !tbaa !17
  %arrayidx527 = getelementptr inbounds double* %185, i64 %198
  %204 = load double* %arrayidx527, align 8, !tbaa !17
  %arrayidx532 = getelementptr inbounds double* %182, i64 %194
  store double %204, double* %arrayidx532, align 8, !tbaa !17
  %205 = or i64 %198, 1
  %arrayidx474.1 = getelementptr inbounds double* %103, i64 %205
  %206 = load double* %arrayidx474.1, align 8, !tbaa !17
  %207 = or i64 %197, 1
  %arrayidx478.1 = getelementptr inbounds double* %182, i64 %207
  store double %206, double* %arrayidx478.1, align 8, !tbaa !17
  %arrayidx482.1 = getelementptr inbounds double* %183, i64 %207
  store double %206, double* %arrayidx482.1, align 8, !tbaa !17
  %arrayidx486.1 = getelementptr inbounds double* %102, i64 %205
  %208 = load double* %arrayidx486.1, align 8, !tbaa !17
  %209 = or i64 %196, 1
  %arrayidx491.1 = getelementptr inbounds double* %182, i64 %209
  store double %208, double* %arrayidx491.1, align 8, !tbaa !17
  %arrayidx496.1 = getelementptr inbounds double* %183, i64 %209
  store double %208, double* %arrayidx496.1, align 8, !tbaa !17
  %arrayidx500.1 = getelementptr inbounds double* %106, i64 %205
  %210 = load double* %arrayidx500.1, align 8, !tbaa !17
  %211 = or i64 %195, 1
  %arrayidx505.1 = getelementptr inbounds double* %183, i64 %211
  store double %210, double* %arrayidx505.1, align 8, !tbaa !17
  %arrayidx509.1 = getelementptr inbounds double* %105, i64 %205
  %212 = load double* %arrayidx509.1, align 8, !tbaa !17
  %213 = or i64 %194, 1
  %arrayidx514.1 = getelementptr inbounds double* %183, i64 %213
  store double %212, double* %arrayidx514.1, align 8, !tbaa !17
  %arrayidx518.1 = getelementptr inbounds double* %184, i64 %205
  %214 = load double* %arrayidx518.1, align 8, !tbaa !17
  %arrayidx523.1 = getelementptr inbounds double* %182, i64 %211
  store double %214, double* %arrayidx523.1, align 8, !tbaa !17
  %arrayidx527.1 = getelementptr inbounds double* %185, i64 %205
  %215 = load double* %arrayidx527.1, align 8, !tbaa !17
  %arrayidx532.1 = getelementptr inbounds double* %182, i64 %213
  store double %215, double* %arrayidx532.1, align 8, !tbaa !17
  %216 = or i64 %198, 2
  %arrayidx474.2 = getelementptr inbounds double* %103, i64 %216
  %217 = load double* %arrayidx474.2, align 8, !tbaa !17
  %218 = or i64 %197, 2
  %arrayidx478.2 = getelementptr inbounds double* %182, i64 %218
  store double %217, double* %arrayidx478.2, align 8, !tbaa !17
  %arrayidx482.2 = getelementptr inbounds double* %183, i64 %218
  store double %217, double* %arrayidx482.2, align 8, !tbaa !17
  %arrayidx486.2 = getelementptr inbounds double* %102, i64 %216
  %219 = load double* %arrayidx486.2, align 8, !tbaa !17
  %220 = or i64 %196, 2
  %arrayidx491.2 = getelementptr inbounds double* %182, i64 %220
  store double %219, double* %arrayidx491.2, align 8, !tbaa !17
  %arrayidx496.2 = getelementptr inbounds double* %183, i64 %220
  store double %219, double* %arrayidx496.2, align 8, !tbaa !17
  %arrayidx500.2 = getelementptr inbounds double* %106, i64 %216
  %221 = load double* %arrayidx500.2, align 8, !tbaa !17
  %222 = or i64 %195, 2
  %arrayidx505.2 = getelementptr inbounds double* %183, i64 %222
  store double %221, double* %arrayidx505.2, align 8, !tbaa !17
  %arrayidx509.2 = getelementptr inbounds double* %105, i64 %216
  %223 = load double* %arrayidx509.2, align 8, !tbaa !17
  %224 = or i64 %194, 2
  %arrayidx514.2 = getelementptr inbounds double* %183, i64 %224
  store double %223, double* %arrayidx514.2, align 8, !tbaa !17
  %arrayidx518.2 = getelementptr inbounds double* %184, i64 %216
  %225 = load double* %arrayidx518.2, align 8, !tbaa !17
  %arrayidx523.2 = getelementptr inbounds double* %182, i64 %222
  store double %225, double* %arrayidx523.2, align 8, !tbaa !17
  %arrayidx527.2 = getelementptr inbounds double* %185, i64 %216
  %226 = load double* %arrayidx527.2, align 8, !tbaa !17
  %arrayidx532.2 = getelementptr inbounds double* %182, i64 %224
  store double %226, double* %arrayidx532.2, align 8, !tbaa !17
  %227 = or i64 %198, 3
  %arrayidx474.3 = getelementptr inbounds double* %103, i64 %227
  %228 = load double* %arrayidx474.3, align 8, !tbaa !17
  %229 = or i64 %197, 3
  %arrayidx478.3 = getelementptr inbounds double* %182, i64 %229
  store double %228, double* %arrayidx478.3, align 8, !tbaa !17
  %arrayidx482.3 = getelementptr inbounds double* %183, i64 %229
  store double %228, double* %arrayidx482.3, align 8, !tbaa !17
  %arrayidx486.3 = getelementptr inbounds double* %102, i64 %227
  %230 = load double* %arrayidx486.3, align 8, !tbaa !17
  %231 = or i64 %196, 3
  %arrayidx491.3 = getelementptr inbounds double* %182, i64 %231
  store double %230, double* %arrayidx491.3, align 8, !tbaa !17
  %arrayidx496.3 = getelementptr inbounds double* %183, i64 %231
  store double %230, double* %arrayidx496.3, align 8, !tbaa !17
  %arrayidx500.3 = getelementptr inbounds double* %106, i64 %227
  %232 = load double* %arrayidx500.3, align 8, !tbaa !17
  %233 = or i64 %195, 3
  %arrayidx505.3 = getelementptr inbounds double* %183, i64 %233
  store double %232, double* %arrayidx505.3, align 8, !tbaa !17
  %arrayidx509.3 = getelementptr inbounds double* %105, i64 %227
  %234 = load double* %arrayidx509.3, align 8, !tbaa !17
  %235 = or i64 %194, 3
  %arrayidx514.3 = getelementptr inbounds double* %183, i64 %235
  store double %234, double* %arrayidx514.3, align 8, !tbaa !17
  %arrayidx518.3 = getelementptr inbounds double* %184, i64 %227
  %236 = load double* %arrayidx518.3, align 8, !tbaa !17
  %arrayidx523.3 = getelementptr inbounds double* %182, i64 %233
  store double %236, double* %arrayidx523.3, align 8, !tbaa !17
  %arrayidx527.3 = getelementptr inbounds double* %185, i64 %227
  %237 = load double* %arrayidx527.3, align 8, !tbaa !17
  %arrayidx532.3 = getelementptr inbounds double* %182, i64 %235
  store double %237, double* %arrayidx532.3, align 8, !tbaa !17
  %indvars.iv.next = add nuw nsw i64 %indvars.iv, 1
  %lftr.wideiv = trunc i64 %indvars.iv.next to i32
  %exitcond = icmp eq i32 %lftr.wideiv, %187
  br i1 %exitcond, label %for.end538, label %for.cond468.preheader

for.end538:                                       ; preds = %for.cond468.preheader, %for.cond464.preheader, %for.cond443.preheader
  ret void

if.then12.1:                                      ; preds = %if.then26, %if.else22, %if.else, %for.cond7.preheader
  %238 = phi double [ %17, %if.then26 ], [ %23, %if.else22 ], [ %23, %for.cond7.preheader ], [ %17, %if.else ]
  %239 = phi double [ %16, %if.then26 ], [ %24, %if.else22 ], [ %24, %for.cond7.preheader ], [ %16, %if.else ]
  %240 = phi double [ %17, %if.then26 ], [ %25, %if.else22 ], [ %25, %for.cond7.preheader ], [ %17, %if.else ]
  %241 = phi double [ %16, %if.then26 ], [ %26, %if.else22 ], [ %26, %for.cond7.preheader ], [ %16, %if.else ]
  %242 = phi <2 x double> [ %28, %if.then26 ], [ <double 1.000000e+00, double 1.000000e+00>, %if.else22 ], [ <double 1.000000e+00, double 1.000000e+00>, %for.cond7.preheader ], [ %22, %if.else ]
  %243 = mul i64 %indvars.iv359, 6
  %arrayidx = getelementptr inbounds double* %18, i64 %243
  %244 = bitcast double* %arrayidx to <2 x double>*
  store <2 x double> %242, <2 x double>* %244, align 8, !tbaa !17
  %245 = icmp ult i32 %27, 2
  %.375 = select i1 %245, double %17, double %238
  %.376 = select i1 %245, double %16, double %239
  %.377 = select i1 %245, double %17, double %240
  %.378 = select i1 %245, double %16, double %241
  %.379 = select i1 %245, double %17, double 0.000000e+00
  %.380 = select i1 %245, double %16, double 0.000000e+00
  %246 = mul i64 %indvars.iv359, 6
  %247 = add i64 %246, 2
  %arrayidx.1 = getelementptr inbounds double* %18, i64 %247
  store double %.380, double* %arrayidx.1, align 8, !tbaa !17
  %248 = or i64 %247, 1
  %arrayidx39.1 = getelementptr inbounds double* %18, i64 %248
  store double %.379, double* %arrayidx39.1, align 8, !tbaa !17
  %249 = and i32 %27, -3
  %250 = icmp eq i32 %249, 0
  br i1 %250, label %if.else.2, label %if.end31.2

if.else.2:                                        ; preds = %if.then12.1
  br i1 %cmp18, label %if.end31.2, label %if.then26.2

if.then26.2:                                      ; preds = %if.else.2
  %sub.2 = fsub double 1.000000e+00, %.376
  %sub27.2 = fsub double 1.000000e+00, %.375
  br label %if.end31.2

if.end31.2:                                       ; preds = %if.then26.2, %if.else.2, %if.then12.1
  %251 = phi double [ %.375, %if.then26.2 ], [ %.377, %if.then12.1 ], [ %.377, %if.else.2 ]
  %252 = phi double [ %.376, %if.then26.2 ], [ %.378, %if.then12.1 ], [ %.378, %if.else.2 ]
  %d_lambda_pair.0.2 = phi double [ %sub27.2, %if.then26.2 ], [ 0.000000e+00, %if.then12.1 ], [ %.377, %if.else.2 ]
  %lambda_pair.0.2 = phi double [ %sub.2, %if.then26.2 ], [ 0.000000e+00, %if.then12.1 ], [ %.378, %if.else.2 ]
  %253 = mul i64 %indvars.iv359, 6
  %254 = add i64 %253, 4
  %arrayidx.2 = getelementptr inbounds double* %18, i64 %254
  store double %lambda_pair.0.2, double* %arrayidx.2, align 8, !tbaa !17
  %255 = or i64 %254, 1
  %arrayidx39.2 = getelementptr inbounds double* %18, i64 %255
  store double %d_lambda_pair.0.2, double* %arrayidx39.2, align 8, !tbaa !17
  %indvars.iv.next360 = add nuw nsw i64 %indvars.iv359, 1
  %exitcond362 = icmp eq i64 %indvars.iv.next360, 3
  br i1 %exitcond362, label %for.end42, label %for.cond7.preheader
}

; Function Attrs: nobuiltin nounwind
declare void @_ZdaPv(i8*) #1

; Function Attrs: nobuiltin
declare noalias i8* @_Znam(i64) #2

; Function Attrs: uwtable
define void @_ZN20ComputeNonbondedUtil20calc_pair_energy_fepEP9nonbonded(%struct.nonbonded* nocapture readonly %params) #0 align 2 {
entry:
  %grouplist_std = alloca [1005 x i32], align 16
  %fixglist_std = alloca [1005 x i32], align 16
  %goodglist_std = alloca [1005 x i32], align 16
  %pairlist_std = alloca [1005 x i32], align 16
  %pairlist2_std = alloca [1005 x i32], align 16
  %pairlistn_std = alloca [1005 x i32], align 16
  %pairlistx_std = alloca [1005 x i32], align 16
  %pairlistm_std = alloca [1005 x i32], align 16
  %0 = load i32* @_ZN20ComputeNonbondedUtil8commOnlyE, align 4, !tbaa !11
  %tobool = icmp eq i32 %0, 0
  br i1 %tobool, label %if.end, label %cleanup.cont

if.end:                                           ; preds = %entry
  %reduction1 = getelementptr inbounds %struct.nonbonded* %params, i64 0, i32 4
  %1 = load double** %reduction1, align 8, !tbaa !48
  %2 = load double* @_ZN20ComputeNonbondedUtil7cutoff2E, align 8, !tbaa !17
  %3 = load double* @_ZN20ComputeNonbondedUtil12groupcutoff2E, align 8, !tbaa !17
  %4 = load double* @_ZN20ComputeNonbondedUtil12dielectric_1E, align 8, !tbaa !17
  %5 = load %class.LJTable** @_ZN20ComputeNonbondedUtil7ljTableE, align 8, !tbaa !1
  %6 = load %class.Molecule** @_ZN20ComputeNonbondedUtil3molE, align 8, !tbaa !1
  %7 = load double** @_ZN20ComputeNonbondedUtil11table_shortE, align 8, !tbaa !1
  %8 = load double* @_ZN20ComputeNonbondedUtil7scalingE, align 8, !tbaa !17
  %9 = load double* @_ZN20ComputeNonbondedUtil7scale14E, align 8, !tbaa !17
  %sub = fsub double 1.000000e+00, %9
  %10 = load double* @_ZN20ComputeNonbondedUtil8r2_deltaE, align 8, !tbaa !17
  %11 = load i32* @_ZN20ComputeNonbondedUtil12r2_delta_expE, align 4, !tbaa !11
  %sub2 = shl i32 %11, 6
  %mul = add i32 %sub2, -8128
  %arrayidx = getelementptr inbounds %struct.nonbonded* %params, i64 0, i32 3, i64 0
  %12 = load i32* %arrayidx, align 4, !tbaa !11
  %arrayidx4 = getelementptr inbounds %struct.nonbonded* %params, i64 0, i32 3, i64 1
  %13 = load i32* %arrayidx4, align 4, !tbaa !11
  %arrayidx5 = getelementptr inbounds %struct.nonbonded* %params, i64 0, i32 0, i64 0
  %14 = load %struct.CompAtom** %arrayidx5, align 8, !tbaa !1
  %arrayidx7 = getelementptr inbounds %struct.nonbonded* %params, i64 0, i32 0, i64 1
  %15 = load %struct.CompAtom** %arrayidx7, align 8, !tbaa !1
  %16 = bitcast [1005 x i32]* %grouplist_std to i8*
  call void @llvm.lifetime.start(i64 4020, i8* %16) #6
  %17 = bitcast [1005 x i32]* %fixglist_std to i8*
  call void @llvm.lifetime.start(i64 4020, i8* %17) #6
  %18 = bitcast [1005 x i32]* %goodglist_std to i8*
  call void @llvm.lifetime.start(i64 4020, i8* %18) #6
  %cmp = icmp slt i32 %13, 1000
  br i1 %cmp, label %cond.end29, label %cond.end29.thread

cond.end29.thread:                                ; preds = %if.end
  %add = add nsw i32 %13, 5
  %19 = sext i32 %add to i64
  %20 = call { i64, i1 } @llvm.umul.with.overflow.i64(i64 %19, i64 4)
  %21 = extractvalue { i64, i1 } %20, 1
  %22 = extractvalue { i64, i1 } %20, 0
  %23 = select i1 %21, i64 -1, i64 %22
  %call = call noalias i8* @_Znam(i64 %23) #8
  %24 = bitcast i8* %call to i32*
  %call14 = call noalias i8* @_Znam(i64 %23) #8
  %25 = bitcast i8* %call14 to i32*
  %call25 = call noalias i8* @_Znam(i64 %23) #8
  %26 = bitcast i8* %call25 to i32*
  br label %for.body.lr.ph

cond.end29:                                       ; preds = %if.end
  %arraydecay = getelementptr inbounds [1005 x i32]* %grouplist_std, i64 0, i64 0
  %arraydecay11 = getelementptr inbounds [1005 x i32]* %fixglist_std, i64 0, i64 0
  %arraydecay22 = getelementptr inbounds [1005 x i32]* %goodglist_std, i64 0, i64 0
  %cmp31745 = icmp sgt i32 %13, 0
  br i1 %cmp31745, label %for.body.lr.ph, label %if.end52

for.body.lr.ph:                                   ; preds = %cond.end29, %cond.end29.thread
  %cond30798 = phi i32* [ %26, %cond.end29.thread ], [ %arraydecay22, %cond.end29 ]
  %cond568570796 = phi i32* [ %24, %cond.end29.thread ], [ %arraydecay, %cond.end29 ]
  %cond19572794 = phi i32* [ %25, %cond.end29.thread ], [ %arraydecay11, %cond.end29 ]
  br label %for.body

for.body:                                         ; preds = %for.inc, %for.body.lr.ph
  %indvars.iv787 = phi i64 [ 0, %for.body.lr.ph ], [ %indvars.iv.next788, %for.inc ]
  %g.0746 = phi i32 [ 0, %for.body.lr.ph ], [ %g.1, %for.inc ]
  %hydrogenGroupSize = getelementptr inbounds %struct.CompAtom* %15, i64 %indvars.iv787, i32 2
  %27 = bitcast [4 x i8]* %hydrogenGroupSize to i32*
  %bf.load = load i32* %27, align 4
  %28 = and i32 %bf.load, 62914560
  %29 = icmp eq i32 %28, 0
  br i1 %29, label %for.inc, label %if.then40

if.then40:                                        ; preds = %for.body
  %inc = add nsw i32 %g.0746, 1
  %idxprom41 = sext i32 %g.0746 to i64
  %arrayidx42 = getelementptr inbounds i32* %cond568570796, i64 %idxprom41
  %30 = trunc i64 %indvars.iv787 to i32
  store i32 %30, i32* %arrayidx42, align 4, !tbaa !11
  br label %for.inc

for.inc:                                          ; preds = %if.then40, %for.body
  %g.1 = phi i32 [ %inc, %if.then40 ], [ %g.0746, %for.body ]
  %indvars.iv.next788 = add nuw nsw i64 %indvars.iv787, 1
  %lftr.wideiv789 = trunc i64 %indvars.iv.next788 to i32
  %exitcond790 = icmp eq i32 %lftr.wideiv789, %13
  br i1 %exitcond790, label %for.end, label %for.body

for.end:                                          ; preds = %for.inc
  %tobool45 = icmp eq i32 %g.1, 0
  br i1 %tobool45, label %if.end52, label %if.then46

if.then46:                                        ; preds = %for.end
  %sub47 = add nsw i32 %g.1, -1
  %idxprom48 = sext i32 %sub47 to i64
  %arrayidx49 = getelementptr inbounds i32* %cond568570796, i64 %idxprom48
  %31 = load i32* %arrayidx49, align 4, !tbaa !11
  %idxprom50 = sext i32 %g.1 to i64
  %arrayidx51 = getelementptr inbounds i32* %cond568570796, i64 %idxprom50
  store i32 %31, i32* %arrayidx51, align 4, !tbaa !11
  br label %if.end52

if.end52:                                         ; preds = %if.then46, %for.end, %cond.end29
  %g.0.lcssa803 = phi i32 [ 0, %for.end ], [ %g.1, %if.then46 ], [ 0, %cond.end29 ]
  %cond19572793802 = phi i32* [ %cond19572794, %for.end ], [ %cond19572794, %if.then46 ], [ %arraydecay11, %cond.end29 ]
  %cond568570795801 = phi i32* [ %cond568570796, %for.end ], [ %cond568570796, %if.then46 ], [ %arraydecay, %cond.end29 ]
  %cond30797800 = phi i32* [ %cond30798, %for.end ], [ %cond30798, %if.then46 ], [ %arraydecay22, %cond.end29 ]
  %32 = load i32* @_ZN20ComputeNonbondedUtil12fixedAtomsOnE, align 4, !tbaa !11
  %tobool53 = icmp eq i32 %32, 0
  br i1 %tobool53, label %if.end118, label %for.cond55.preheader

for.cond55.preheader:                             ; preds = %if.end52
  %cmp56739 = icmp sgt i32 %g.0.lcssa803, 0
  br i1 %cmp56739, label %for.body57, label %for.cond74.preheader

for.cond74.preheader:                             ; preds = %for.inc71, %for.cond55.preheader
  %fixg.0.lcssa = phi i32 [ 0, %for.cond55.preheader ], [ %fixg.1, %for.inc71 ]
  %all_fixed.0.lcssa = phi i32 [ 1, %for.cond55.preheader ], [ %all_fixed.1, %for.inc71 ]
  %tobool75733 = icmp ne i32 %all_fixed.0.lcssa, 0
  %cmp76734 = icmp sgt i32 %12, 0
  %or.cond552735 = and i1 %tobool75733, %cmp76734
  br i1 %or.cond552735, label %for.body77, label %for.end88

for.body57:                                       ; preds = %for.inc71, %for.cond55.preheader
  %indvars.iv783 = phi i64 [ %indvars.iv.next784, %for.inc71 ], [ 0, %for.cond55.preheader ]
  %fixg.0741 = phi i32 [ %fixg.1, %for.inc71 ], [ 0, %for.cond55.preheader ]
  %all_fixed.0740 = phi i32 [ %all_fixed.1, %for.inc71 ], [ 1, %for.cond55.preheader ]
  %arrayidx59 = getelementptr inbounds i32* %cond568570795801, i64 %indvars.iv783
  %33 = load i32* %arrayidx59, align 4, !tbaa !11
  %idxprom60 = sext i32 %33 to i64
  %groupFixed = getelementptr inbounds %struct.CompAtom* %15, i64 %idxprom60, i32 2
  %34 = bitcast [4 x i8]* %groupFixed to i32*
  %bf.load62 = load i32* %34, align 4
  %bf.clear64 = and i32 %bf.load62, 134217728
  %tobool65 = icmp eq i32 %bf.clear64, 0
  br i1 %tobool65, label %if.then66, label %for.inc71

if.then66:                                        ; preds = %for.body57
  %inc67 = add nsw i32 %fixg.0741, 1
  %idxprom68 = sext i32 %fixg.0741 to i64
  %arrayidx69 = getelementptr inbounds i32* %cond19572793802, i64 %idxprom68
  store i32 %33, i32* %arrayidx69, align 4, !tbaa !11
  br label %for.inc71

for.inc71:                                        ; preds = %if.then66, %for.body57
  %all_fixed.1 = phi i32 [ %all_fixed.0740, %for.body57 ], [ 0, %if.then66 ]
  %fixg.1 = phi i32 [ %fixg.0741, %for.body57 ], [ %inc67, %if.then66 ]
  %indvars.iv.next784 = add nuw nsw i64 %indvars.iv783, 1
  %lftr.wideiv785 = trunc i64 %indvars.iv.next784 to i32
  %exitcond786 = icmp eq i32 %lftr.wideiv785, %g.0.lcssa803
  br i1 %exitcond786, label %for.cond74.preheader, label %for.body57

for.body77:                                       ; preds = %for.body77, %for.cond74.preheader
  %indvars.iv781 = phi i64 [ %indvars.iv.next782, %for.body77 ], [ 0, %for.cond74.preheader ]
  %all_fixed.2736 = phi i32 [ %.all_fixed.2, %for.body77 ], [ %all_fixed.0.lcssa, %for.cond74.preheader ]
  %atomFixed = getelementptr inbounds %struct.CompAtom* %14, i64 %indvars.iv781, i32 2
  %35 = bitcast [4 x i8]* %atomFixed to i32*
  %bf.load80 = load i32* %35, align 4
  %bf.clear82 = and i32 %bf.load80, 67108864
  %tobool83 = icmp eq i32 %bf.clear82, 0
  %.all_fixed.2 = select i1 %tobool83, i32 0, i32 %all_fixed.2736
  %indvars.iv.next782 = add nuw nsw i64 %indvars.iv781, 1
  %tobool75 = icmp ne i32 %.all_fixed.2, 0
  %36 = trunc i64 %indvars.iv.next782 to i32
  %cmp76 = icmp slt i32 %36, %12
  %or.cond552 = and i1 %tobool75, %cmp76
  br i1 %or.cond552, label %for.body77, label %for.end88

for.end88:                                        ; preds = %for.body77, %for.cond74.preheader
  %tobool75.lcssa = phi i1 [ %tobool75733, %for.cond74.preheader ], [ %tobool75, %for.body77 ]
  br i1 %tobool75.lcssa, label %if.then90, label %if.end110

if.then90:                                        ; preds = %for.end88
  %arraydecay91 = getelementptr inbounds [1005 x i32]* %grouplist_std, i64 0, i64 0
  %cmp92 = icmp eq i32* %cond568570795801, %arraydecay91
  br i1 %cmp92, label %if.end94, label %delete.notnull

delete.notnull:                                   ; preds = %if.then90
  %37 = bitcast i32* %cond568570795801 to i8*
  call void @_ZdaPv(i8* %37) #7
  br label %if.end94

if.end94:                                         ; preds = %delete.notnull, %if.then90
  %arraydecay95 = getelementptr inbounds [1005 x i32]* %fixglist_std, i64 0, i64 0
  %cmp96 = icmp eq i32* %cond19572793802, %arraydecay95
  br i1 %cmp96, label %if.end101, label %delete.notnull99

delete.notnull99:                                 ; preds = %if.end94
  %38 = bitcast i32* %cond19572793802 to i8*
  call void @_ZdaPv(i8* %38) #7
  br label %if.end101

if.end101:                                        ; preds = %delete.notnull99, %if.end94
  %arraydecay102 = getelementptr inbounds [1005 x i32]* %goodglist_std, i64 0, i64 0
  %cmp103 = icmp eq i32* %cond30797800, %arraydecay102
  br i1 %cmp103, label %cleanup.cont, label %delete.notnull106

delete.notnull106:                                ; preds = %if.end101
  %39 = bitcast i32* %cond30797800 to i8*
  call void @_ZdaPv(i8* %39) #7
  br label %cleanup.cont

if.end110:                                        ; preds = %for.end88
  %tobool111 = icmp eq i32 %fixg.0.lcssa, 0
  br i1 %tobool111, label %if.end118, label %if.then112

if.then112:                                       ; preds = %if.end110
  %sub113 = add nsw i32 %fixg.0.lcssa, -1
  %idxprom114 = sext i32 %sub113 to i64
  %arrayidx115 = getelementptr inbounds i32* %cond19572793802, i64 %idxprom114
  %40 = load i32* %arrayidx115, align 4, !tbaa !11
  %idxprom116 = sext i32 %fixg.0.lcssa to i64
  %arrayidx117 = getelementptr inbounds i32* %cond19572793802, i64 %idxprom116
  store i32 %40, i32* %arrayidx117, align 4, !tbaa !11
  br label %if.end118

if.end118:                                        ; preds = %if.then112, %if.end110, %if.end52
  %fixg.2575 = phi i32 [ 0, %if.end110 ], [ %fixg.0.lcssa, %if.then112 ], [ 0, %if.end52 ]
  %41 = bitcast [1005 x i32]* %pairlist_std to i8*
  call void @llvm.lifetime.start(i64 4020, i8* %41) #6
  %42 = bitcast [1005 x i32]* %pairlist2_std to i8*
  call void @llvm.lifetime.start(i64 4020, i8* %42) #6
  %43 = bitcast [1005 x i32]* %pairlistn_std to i8*
  call void @llvm.lifetime.start(i64 4020, i8* %43) #6
  %44 = bitcast [1005 x i32]* %pairlistx_std to i8*
  call void @llvm.lifetime.start(i64 4020, i8* %44) #6
  %45 = bitcast [1005 x i32]* %pairlistm_std to i8*
  call void @llvm.lifetime.start(i64 4020, i8* %45) #6
  br i1 %cmp, label %cond.true164, label %cond.false166

cond.true164:                                     ; preds = %if.end118
  %arraydecay121 = getelementptr inbounds [1005 x i32]* %pairlist_std, i64 0, i64 0
  %arraydecay132 = getelementptr inbounds [1005 x i32]* %pairlist2_std, i64 0, i64 0
  %arraydecay143 = getelementptr inbounds [1005 x i32]* %pairlistn_std, i64 0, i64 0
  %arraydecay154 = getelementptr inbounds [1005 x i32]* %pairlistx_std, i64 0, i64 0
  %arraydecay165 = getelementptr inbounds [1005 x i32]* %pairlistm_std, i64 0, i64 0
  br label %cond.end172

cond.false166:                                    ; preds = %if.end118
  %add123 = add nsw i32 %13, 5
  %46 = sext i32 %add123 to i64
  %47 = call { i64, i1 } @llvm.umul.with.overflow.i64(i64 %46, i64 4)
  %48 = extractvalue { i64, i1 } %47, 1
  %49 = extractvalue { i64, i1 } %47, 0
  %50 = select i1 %48, i64 -1, i64 %49
  %call124 = call noalias i8* @_Znam(i64 %50) #8
  %51 = bitcast i8* %call124 to i32*
  %call135 = call noalias i8* @_Znam(i64 %50) #8
  %52 = bitcast i8* %call135 to i32*
  %call146 = call noalias i8* @_Znam(i64 %50) #8
  %53 = bitcast i8* %call146 to i32*
  %call157 = call noalias i8* @_Znam(i64 %50) #8
  %54 = bitcast i8* %call157 to i32*
  %call168 = call noalias i8* @_Znam(i64 %50) #8
  %55 = bitcast i8* %call168 to i32*
  br label %cond.end172

cond.end172:                                      ; preds = %cond.false166, %cond.true164
  %cond162594 = phi i32* [ %arraydecay154, %cond.true164 ], [ %54, %cond.false166 ]
  %cond140580582592 = phi i32* [ %arraydecay132, %cond.true164 ], [ %52, %cond.false166 ]
  %cond129576578584590 = phi i32* [ %arraydecay121, %cond.true164 ], [ %51, %cond.false166 ]
  %cond151586588 = phi i32* [ %arraydecay143, %cond.true164 ], [ %53, %cond.false166 ]
  %cond173 = phi i32* [ %arraydecay165, %cond.true164 ], [ %55, %cond.false166 ]
  %arrayidx174 = getelementptr inbounds %struct.nonbonded* %params, i64 0, i32 1, i64 0
  %56 = load %class.Vector** %arrayidx174, align 8, !tbaa !1
  %arrayidx176 = getelementptr inbounds %struct.nonbonded* %params, i64 0, i32 1, i64 1
  %57 = load %class.Vector** %arrayidx176, align 8, !tbaa !1
  %mul177 = mul nsw i32 %13, %12
  %minPart = getelementptr inbounds %struct.nonbonded* %params, i64 0, i32 8
  %58 = load i32* %minPart, align 4, !tbaa !50
  %mul178 = mul nsw i32 %58, %mul177
  %numParts = getelementptr inbounds %struct.nonbonded* %params, i64 0, i32 10
  %59 = load i32* %numParts, align 4, !tbaa !51
  %div = sdiv i32 %mul178, %59
  %maxPart = getelementptr inbounds %struct.nonbonded* %params, i64 0, i32 9
  %60 = load i32* %maxPart, align 4, !tbaa !52
  %mul179 = mul nsw i32 %60, %mul177
  %div181 = sdiv i32 %mul179, %59
  %cmp183696 = icmp sgt i32 %12, 0
  br i1 %cmp183696, label %for.body184.lr.ph, label %for.end946

for.body184.lr.ph:                                ; preds = %cond.end172
  %all_exclusions.i = getelementptr inbounds %class.Molecule* %6, i64 0, i32 1
  %atomVdwType.i565 = getelementptr inbounds %class.Molecule* %6, i64 0, i32 4
  %table.i = getelementptr inbounds %class.LJTable* %5, i64 0, i32 1
  %table_dim.i = getelementptr inbounds %class.LJTable* %5, i64 0, i32 2
  %sub.ptr.rhs.cast525 = ptrtoint i32* %cond140580582592 to i64
  %sub.ptr.rhs.cast562 = ptrtoint i32* %cond162594 to i64
  %sub.ptr.rhs.cast569 = ptrtoint i32* %cond173 to i64
  %sub.ptr.rhs.cast576 = ptrtoint i32* %cond151586588 to i64
  %sub871 = fsub double 1.000000e+00, %sub
  %sub.ptr.rhs.cast = ptrtoint i32* %cond30797800 to i64
  %sub.ptr.rhs.cast326 = ptrtoint i32* %cond129576578584590 to i64
  br label %for.body184

for.body184:                                      ; preds = %for.inc944, %for.body184.lr.ph
  %exclChecksum.0720 = phi i32 [ 0, %for.body184.lr.ph ], [ %exclChecksum.8, %for.inc944 ]
  %i.1699 = phi i32 [ 0, %for.body184.lr.ph ], [ %inc945, %for.inc944 ]
  %pairlistindex.0698 = phi i32 [ 0, %for.body184.lr.ph ], [ %pairlistindex.2, %for.inc944 ]
  %pairCount.0697 = phi i32 [ 0, %for.body184.lr.ph ], [ %pairCount.3, %for.inc944 ]
  %61 = phi <2 x double> [ zeroinitializer, %for.body184.lr.ph ], [ %300, %for.inc944 ]
  %62 = phi <2 x double> [ zeroinitializer, %for.body184.lr.ph ], [ %301, %for.inc944 ]
  %63 = phi <2 x double> [ zeroinitializer, %for.body184.lr.ph ], [ %302, %for.inc944 ]
  %64 = phi <2 x double> [ zeroinitializer, %for.body184.lr.ph ], [ %303, %for.inc944 ]
  %65 = phi <2 x double> [ zeroinitializer, %for.body184.lr.ph ], [ %304, %for.inc944 ]
  %idxprom185 = sext i32 %i.1699 to i64
  %id = getelementptr inbounds %struct.CompAtom* %14, i64 %idxprom185, i32 2
  %66 = bitcast [4 x i8]* %id to i32*
  %bf.load187 = load i32* %66, align 4
  %bf.clear188 = and i32 %bf.load187, 4194303
  %idxprom.i596 = zext i32 %bf.clear188 to i64
  %67 = load %class.ExclusionCheck** %all_exclusions.i, align 8, !tbaa !53
  %min = getelementptr inbounds %class.ExclusionCheck* %67, i64 %idxprom.i596, i32 0
  %68 = load i32* %min, align 4, !tbaa !55
  %max = getelementptr inbounds %class.ExclusionCheck* %67, i64 %idxprom.i596, i32 1
  %69 = load i32* %max, align 4, !tbaa !57
  %flags = getelementptr inbounds %class.ExclusionCheck* %67, i64 %idxprom.i596, i32 2
  %70 = load i8** %flags, align 8, !tbaa !58
  %idx.ext = sext i32 %68 to i64
  %x = getelementptr inbounds %struct.CompAtom* %14, i64 %idxprom185, i32 0, i32 0
  %71 = load double* %x, align 8, !tbaa !59
  %y = getelementptr inbounds %struct.CompAtom* %14, i64 %idxprom185, i32 0, i32 1
  %72 = load double* %y, align 8, !tbaa !61
  %z = getelementptr inbounds %struct.CompAtom* %14, i64 %idxprom185, i32 0, i32 2
  %73 = load double* %z, align 8, !tbaa !62
  %arrayidx193 = getelementptr inbounds %class.Vector* %56, i64 %idxprom185
  %74 = and i32 %bf.load187, 62914560
  %75 = icmp eq i32 %74, 0
  br i1 %75, label %if.end354, label %if.then205

if.then205:                                       ; preds = %for.body184
  %bf.lshr208 = lshr i32 %bf.load187, 22
  %bf.clear209 = and i32 %bf.lshr208, 7
  %tobool210 = icmp eq i32 %bf.clear209, 0
  br i1 %tobool210, label %if.end225, label %if.then211

if.then211:                                       ; preds = %if.then205
  %mul216 = mul nsw i32 %bf.clear209, %13
  %add217 = add nsw i32 %mul216, %pairCount.0697
  %cmp218 = icmp sge i32 %pairCount.0697, %div
  %cmp220 = icmp slt i32 %pairCount.0697, %div181
  %or.cond554 = and i1 %cmp218, %cmp220
  br i1 %or.cond554, label %if.end225, label %if.then221

if.then221:                                       ; preds = %if.then211
  %sub222 = add i32 %i.1699, -1
  %add223 = add i32 %sub222, %bf.clear209
  br label %for.inc944

if.end225:                                        ; preds = %if.then211, %if.then205
  %pairCount.1 = phi i32 [ %pairCount.0697, %if.then205 ], [ %add217, %if.then211 ]
  %76 = load i32* @_ZN20ComputeNonbondedUtil12fixedAtomsOnE, align 4, !tbaa !11
  %tobool226 = icmp eq i32 %76, 0
  br i1 %tobool226, label %land.end, label %land.rhs

land.rhs:                                         ; preds = %if.end225
  %bf.clear230 = and i32 %bf.load187, 134217728
  %tobool231 = icmp ne i32 %bf.clear230, 0
  br label %land.end

land.end:                                         ; preds = %land.rhs, %if.end225
  %77 = phi i1 [ false, %if.end225 ], [ %tobool231, %land.rhs ]
  %cond238 = select i1 %77, i32* %cond19572793802, i32* %cond568570795801
  %cond243 = select i1 %77, i32 %fixg.2575, i32 %g.0.lcssa803
  %cmp244 = icmp sgt i32 %cond243, 0
  br i1 %cmp244, label %if.then245, label %if.end324

if.then245:                                       ; preds = %land.end
  %78 = load i32* %cond238, align 4, !tbaa !11
  %idxprom248 = sext i32 %78 to i64
  %x251 = getelementptr inbounds %struct.CompAtom* %15, i64 %idxprom248, i32 0, i32 0
  %79 = load double* %x251, align 8, !tbaa !59
  %y255 = getelementptr inbounds %struct.CompAtom* %15, i64 %idxprom248, i32 0, i32 1
  %80 = load double* %y255, align 8, !tbaa !61
  %z259 = getelementptr inbounds %struct.CompAtom* %15, i64 %idxprom248, i32 0, i32 2
  %81 = load double* %z259, align 8, !tbaa !62
  br label %while.cond.outer

while.cond.outer:                                 ; preds = %if.then285, %if.then245
  %p_j_z.0.ph = phi double [ %81, %if.then245 ], [ %87, %if.then285 ]
  %p_j_y.0.ph = phi double [ %80, %if.then245 ], [ %86, %if.then285 ]
  %p_j_x.0.ph = phi double [ %79, %if.then245 ], [ %85, %if.then285 ]
  %j2.0.ph = phi i32 [ %78, %if.then245 ], [ %84, %if.then285 ]
  %gli.0.ph = phi i32* [ %cond30797800, %if.then245 ], [ %incdec.ptr, %if.then285 ]
  %g.3.ph = phi i32 [ 0, %if.then245 ], [ %inc261, %if.then285 ]
  %82 = sext i32 %g.3.ph to i64
  br label %while.cond

while.cond:                                       ; preds = %while.body, %while.cond.outer
  %indvars.iv = phi i64 [ %82, %while.cond.outer ], [ %indvars.iv.next, %while.body ]
  %p_j_z.0 = phi double [ %p_j_z.0.ph, %while.cond.outer ], [ %87, %while.body ]
  %p_j_y.0 = phi double [ %p_j_y.0.ph, %while.cond.outer ], [ %86, %while.body ]
  %p_j_x.0 = phi double [ %p_j_x.0.ph, %while.cond.outer ], [ %85, %while.body ]
  %j2.0 = phi i32 [ %j2.0.ph, %while.cond.outer ], [ %84, %while.body ]
  %g.3 = phi i32 [ %g.3.ph, %while.cond.outer ], [ %inc261, %while.body ]
  %83 = trunc i64 %indvars.iv to i32
  %cmp260 = icmp slt i32 %83, %cond243
  br i1 %cmp260, label %while.body, label %while.end

while.body:                                       ; preds = %while.cond
  %indvars.iv.next = add nsw i64 %indvars.iv, 1
  %inc261 = add nsw i32 %g.3, 1
  %arrayidx263 = getelementptr inbounds i32* %cond238, i64 %indvars.iv.next
  %84 = load i32* %arrayidx263, align 4, !tbaa !11
  %sub264 = fsub double %71, %p_j_x.0
  %mul265 = fmul double %sub264, %sub264
  %idxprom266 = sext i32 %84 to i64
  %x269 = getelementptr inbounds %struct.CompAtom* %15, i64 %idxprom266, i32 0, i32 0
  %85 = load double* %x269, align 8, !tbaa !59
  %sub270 = fsub double %72, %p_j_y.0
  %mul271 = fmul double %sub270, %sub270
  %add272 = fadd double %mul271, %mul265
  %y276 = getelementptr inbounds %struct.CompAtom* %15, i64 %idxprom266, i32 0, i32 1
  %86 = load double* %y276, align 8, !tbaa !61
  %sub277 = fsub double %73, %p_j_z.0
  %mul278 = fmul double %sub277, %sub277
  %add279 = fadd double %mul278, %add272
  %z283 = getelementptr inbounds %struct.CompAtom* %15, i64 %idxprom266, i32 0, i32 2
  %87 = load double* %z283, align 8, !tbaa !62
  %cmp284 = fcmp ugt double %add279, %3
  br i1 %cmp284, label %while.cond, label %if.then285

if.then285:                                       ; preds = %while.body
  store i32 %j2.0, i32* %gli.0.ph, align 4, !tbaa !11
  %incdec.ptr = getelementptr inbounds i32* %gli.0.ph, i64 1
  br label %while.cond.outer

while.end:                                        ; preds = %while.cond
  %sub.ptr.lhs.cast = ptrtoint i32* %gli.0.ph to i64
  %sub.ptr.sub = sub i64 %sub.ptr.lhs.cast, %sub.ptr.rhs.cast
  %sub.ptr.div549 = lshr exact i64 %sub.ptr.sub, 2
  %conv287 = trunc i64 %sub.ptr.div549 to i32
  %cmp289607 = icmp sgt i32 %conv287, 0
  br i1 %cmp289607, label %for.body290.lr.ph, label %if.end324

for.body290.lr.ph:                                ; preds = %while.end
  %88 = sub i64 %sub.ptr.lhs.cast, %sub.ptr.rhs.cast
  %89 = lshr i64 %88, 2
  %90 = trunc i64 %89 to i32
  br label %for.body290

for.body290:                                      ; preds = %cond.end310, %for.body290.lr.ph
  %indvars.iv753 = phi i64 [ 0, %for.body290.lr.ph ], [ %indvars.iv.next754, %cond.end310 ]
  %pli.0609 = phi i32* [ %cond129576578584590, %for.body290.lr.ph ], [ %add.ptr320, %cond.end310 ]
  %arrayidx293 = getelementptr inbounds i32* %cond30797800, i64 %indvars.iv753
  %91 = load i32* %arrayidx293, align 4, !tbaa !11
  %idxprom295 = sext i32 %91 to i64
  %nonbondedGroupIsAtom297 = getelementptr inbounds %struct.CompAtom* %15, i64 %idxprom295, i32 2
  %92 = bitcast [4 x i8]* %nonbondedGroupIsAtom297 to i32*
  %bf.load298 = load i32* %92, align 4
  %bf.clear300 = and i32 %bf.load298, 33554432
  %tobool301 = icmp eq i32 %bf.clear300, 0
  br i1 %tobool301, label %cond.false303, label %cond.end310

cond.false303:                                    ; preds = %for.body290
  %bf.lshr308 = lshr i32 %bf.load298, 22
  %bf.clear309 = and i32 %bf.lshr308, 7
  %phitmp550551 = zext i32 %bf.clear309 to i64
  br label %cond.end310

cond.end310:                                      ; preds = %cond.false303, %for.body290
  %cond311 = phi i64 [ %phitmp550551, %cond.false303 ], [ 1, %for.body290 ]
  store i32 %91, i32* %pli.0609, align 4, !tbaa !11
  %add313 = add nsw i32 %91, 1
  %arrayidx314 = getelementptr inbounds i32* %pli.0609, i64 1
  store i32 %add313, i32* %arrayidx314, align 4, !tbaa !11
  %add315 = add nsw i32 %91, 2
  %arrayidx316 = getelementptr inbounds i32* %pli.0609, i64 2
  store i32 %add315, i32* %arrayidx316, align 4, !tbaa !11
  %add317 = add nsw i32 %91, 3
  %arrayidx318 = getelementptr inbounds i32* %pli.0609, i64 3
  store i32 %add317, i32* %arrayidx318, align 4, !tbaa !11
  %add.ptr320 = getelementptr inbounds i32* %pli.0609, i64 %cond311
  %indvars.iv.next754 = add nuw nsw i64 %indvars.iv753, 1
  %lftr.wideiv = trunc i64 %indvars.iv.next754 to i32
  %exitcond = icmp eq i32 %lftr.wideiv, %90
  br i1 %exitcond, label %if.end324, label %for.body290

if.end324:                                        ; preds = %cond.end310, %while.end, %land.end
  %pli.1 = phi i32* [ %cond129576578584590, %land.end ], [ %cond129576578584590, %while.end ], [ %add.ptr320, %cond.end310 ]
  %sub.ptr.lhs.cast325 = ptrtoint i32* %pli.1 to i64
  %sub.ptr.sub327 = sub i64 %sub.ptr.lhs.cast325, %sub.ptr.rhs.cast326
  %sub.ptr.div328546 = lshr exact i64 %sub.ptr.sub327, 2
  %conv329 = trunc i64 %sub.ptr.div328546 to i32
  %tobool330 = icmp eq i32 %conv329, 0
  br i1 %tobool330, label %if.else, label %if.then331

if.then331:                                       ; preds = %if.end324
  %sub332 = shl i64 %sub.ptr.sub327, 30
  %sext547 = add i64 %sub332, -4294967296
  %idxprom333 = ashr exact i64 %sext547, 32
  %arrayidx334 = getelementptr inbounds i32* %cond129576578584590, i64 %idxprom333
  %93 = load i32* %arrayidx334, align 4, !tbaa !11
  %idxprom335 = ashr exact i64 %sub332, 32
  %arrayidx336 = getelementptr inbounds i32* %cond129576578584590, i64 %idxprom335
  store i32 %93, i32* %arrayidx336, align 4, !tbaa !11
  br label %if.end354

if.else:                                          ; preds = %if.end324
  %bf.load339 = load i32* %66, align 4
  %bf.clear341 = and i32 %bf.load339, 33554432
  %tobool342 = icmp eq i32 %bf.clear341, 0
  br i1 %tobool342, label %cond.false344, label %cond.end349

cond.false344:                                    ; preds = %if.else
  %bf.lshr347 = lshr i32 %bf.load339, 22
  %bf.clear348 = and i32 %bf.lshr347, 7
  %phitmp = add i32 %bf.clear348, -1
  br label %cond.end349

cond.end349:                                      ; preds = %cond.false344, %if.else
  %cond350 = phi i32 [ %phitmp, %cond.false344 ], [ 0, %if.else ]
  %add352 = add nsw i32 %cond350, %i.1699
  br label %for.inc944

if.end354:                                        ; preds = %if.then331, %for.body184
  %pairCount.2 = phi i32 [ %pairCount.1, %if.then331 ], [ %pairCount.0697, %for.body184 ]
  %pairlistindex.1 = phi i32 [ %conv329, %if.then331 ], [ %pairlistindex.0698, %for.body184 ]
  %94 = load i32* @_ZN20ComputeNonbondedUtil12fixedAtomsOnE, align 4, !tbaa !11
  %tobool355 = icmp eq i32 %94, 0
  %bf.load364.pre = load i32* %66, align 4
  br i1 %tobool355, label %land.end362, label %land.rhs356

land.rhs356:                                      ; preds = %if.end354
  %bf.clear360 = and i32 %bf.load364.pre, 67108864
  %tobool361 = icmp ne i32 %bf.clear360, 0
  br label %land.end362

land.end362:                                      ; preds = %land.rhs356, %if.end354
  %95 = phi i1 [ %tobool361, %land.rhs356 ], [ false, %if.end354 ]
  %96 = load double** @_ZN20ComputeNonbondedUtil12lambda_tableE, align 8, !tbaa !1
  %bf.lshr365 = lshr i32 %bf.load364.pre, 28
  %mul366 = mul nsw i32 %bf.lshr365, 6
  %idx.ext367503 = zext i32 %mul366 to i64
  %charge = getelementptr inbounds %struct.CompAtom* %14, i64 %idxprom185, i32 1
  %97 = load float* %charge, align 4, !tbaa !63
  %conv369 = fpext float %97 to double
  %mul370 = fmul double %conv369, 3.320636e+02
  %mul371 = fmul double %8, %mul370
  %mul372 = fmul double %4, %mul371
  %bf.clear375 = and i32 %bf.load364.pre, 4194303
  %idxprom.i564597 = zext i32 %bf.clear375 to i64
  %98 = load i32** %atomVdwType.i565, align 8, !tbaa !64
  %arrayidx.i566 = getelementptr inbounds i32* %98, i64 %idxprom.i564597
  %99 = load i32* %arrayidx.i566, align 4, !tbaa !11
  %100 = load %"struct.LJTable::TableEntry"** %table.i, align 8, !tbaa !65
  %101 = load i32* %table_dim.i, align 4, !tbaa !67
  %conv377 = shl i32 %99, 1
  %mul.i = and i32 %conv377, 131070
  %mul2.i = mul i32 %mul.i, %101
  %idx.ext.i = zext i32 %mul2.i to i64
  %cmp383634 = icmp sgt i32 %pairlistindex.1, 0
  br i1 %95, label %for.cond382.preheader, label %if.else444

for.cond382.preheader:                            ; preds = %land.end362
  br i1 %cmp383634, label %for.body384, label %if.end523

for.body384:                                      ; preds = %for.inc441, %for.cond382.preheader
  %indvars.iv764 = phi i64 [ %indvars.iv.next765, %for.inc441 ], [ 0, %for.cond382.preheader ]
  %exclChecksum.1638 = phi i32 [ %exclChecksum.3, %for.inc441 ], [ %exclChecksum.0720, %for.cond382.preheader ]
  %pli379.0637 = phi i32* [ %pli379.1, %for.inc441 ], [ %cond140580582592, %for.cond382.preheader ]
  %plin.0636 = phi i32* [ %plin.1, %for.inc441 ], [ %cond151586588, %for.cond382.preheader ]
  %arrayidx386 = getelementptr inbounds i32* %cond129576578584590, i64 %indvars.iv764
  %102 = load i32* %arrayidx386, align 4, !tbaa !11
  %idxprom388 = sext i32 %102 to i64
  %x391 = getelementptr inbounds %struct.CompAtom* %15, i64 %idxprom388, i32 0, i32 0
  %103 = load double* %x391, align 8, !tbaa !59
  %sub393 = fsub double %71, %103
  %mul394 = fmul double %sub393, %sub393
  %y399 = getelementptr inbounds %struct.CompAtom* %15, i64 %idxprom388, i32 0, i32 1
  %104 = load double* %y399, align 8, !tbaa !61
  %sub401 = fsub double %72, %104
  %mul402 = fmul double %sub401, %sub401
  %add403 = fadd double %mul394, %mul402
  %z408 = getelementptr inbounds %struct.CompAtom* %15, i64 %idxprom388, i32 0, i32 2
  %105 = load double* %z408, align 8, !tbaa !62
  %sub409 = fsub double %73, %105
  %mul410 = fmul double %sub409, %sub409
  %add411 = fadd double %add403, %mul410
  %atomFixed414 = getelementptr inbounds %struct.CompAtom* %15, i64 %idxprom388, i32 2
  %106 = bitcast [4 x i8]* %atomFixed414 to i32*
  %bf.load415 = load i32* %106, align 4
  %bf.clear417 = and i32 %bf.load415, 67108864
  %tobool418 = icmp ne i32 %bf.clear417, 0
  %cmp420 = fcmp ugt double %add411, %2
  %or.cond555 = or i1 %tobool418, %cmp420
  br i1 %or.cond555, label %for.inc441, label %land.lhs.true421

land.lhs.true421:                                 ; preds = %for.body384
  %cmp422 = fcmp ugt double %add411, %10
  br i1 %cmp422, label %if.then426, label %land.lhs.true423

land.lhs.true423:                                 ; preds = %land.lhs.true421
  %inc424 = add nsw i32 %exclChecksum.1638, 1
  %tobool425 = icmp eq i32 %inc424, 0
  br i1 %tobool425, label %if.then426, label %for.inc441

if.then426:                                       ; preds = %land.lhs.true423, %land.lhs.true421
  %exclChecksum.2 = phi i32 [ 0, %land.lhs.true423 ], [ %exclChecksum.1638, %land.lhs.true421 ]
  %bf.clear431 = and i32 %bf.load415, 4194303
  %cmp432 = icmp slt i32 %bf.clear431, %68
  %cmp434 = icmp sgt i32 %bf.clear431, %69
  %or.cond556 = or i1 %cmp432, %cmp434
  br i1 %or.cond556, label %if.else437, label %if.then435

if.then435:                                       ; preds = %if.then426
  %incdec.ptr436 = getelementptr inbounds i32* %pli379.0637, i64 1
  store i32 %102, i32* %pli379.0637, align 4, !tbaa !11
  br label %for.inc441

if.else437:                                       ; preds = %if.then426
  %incdec.ptr438 = getelementptr inbounds i32* %plin.0636, i64 1
  store i32 %102, i32* %plin.0636, align 4, !tbaa !11
  br label %for.inc441

for.inc441:                                       ; preds = %if.else437, %if.then435, %land.lhs.true423, %for.body384
  %plin.1 = phi i32* [ %plin.0636, %for.body384 ], [ %plin.0636, %land.lhs.true423 ], [ %plin.0636, %if.then435 ], [ %incdec.ptr438, %if.else437 ]
  %pli379.1 = phi i32* [ %pli379.0637, %for.body384 ], [ %pli379.0637, %land.lhs.true423 ], [ %incdec.ptr436, %if.then435 ], [ %pli379.0637, %if.else437 ]
  %exclChecksum.3 = phi i32 [ %exclChecksum.1638, %for.body384 ], [ %inc424, %land.lhs.true423 ], [ %exclChecksum.2, %if.then435 ], [ %exclChecksum.2, %if.else437 ]
  %indvars.iv.next765 = add nuw nsw i64 %indvars.iv764, 1
  %lftr.wideiv766 = trunc i64 %indvars.iv.next765 to i32
  %exitcond767 = icmp eq i32 %lftr.wideiv766, %pairlistindex.1
  br i1 %exitcond767, label %if.end523, label %for.body384

if.else444:                                       ; preds = %land.end362
  br i1 %cmp383634, label %if.then447, label %if.end523

if.then447:                                       ; preds = %if.else444
  %107 = load i32* %cond129576578584590, align 4, !tbaa !11
  %idxprom452 = sext i32 %107 to i64
  %x455 = getelementptr inbounds %struct.CompAtom* %15, i64 %idxprom452, i32 0, i32 0
  %108 = load double* %x455, align 8, !tbaa !59
  %y460 = getelementptr inbounds %struct.CompAtom* %15, i64 %idxprom452, i32 0, i32 1
  %109 = load double* %y460, align 8, !tbaa !61
  %z465 = getelementptr inbounds %struct.CompAtom* %15, i64 %idxprom452, i32 0, i32 2
  %110 = load double* %z465, align 8, !tbaa !62
  br label %while.cond472.outer

while.cond472.outer:                              ; preds = %if.else512, %if.then447
  %idxprom452.pn.ph = phi i64 [ %idxprom452, %if.then447 ], [ %idxprom481, %if.else512 ]
  %p_j_z461.0.ph = phi double [ %110, %if.then447 ], [ %116, %if.else512 ]
  %p_j_y456.0.ph = phi double [ %109, %if.then447 ], [ %115, %if.else512 ]
  %p_j_x451.0.ph = phi double [ %108, %if.then447 ], [ %114, %if.else512 ]
  %j2448.0.ph = phi i32 [ %107, %if.then447 ], [ %113, %if.else512 ]
  %k445.0.ph = phi i32 [ 0, %if.then447 ], [ %inc475, %if.else512 ]
  %plin.2.ph = phi i32* [ %cond151586588, %if.then447 ], [ %incdec.ptr513, %if.else512 ]
  %pli379.2.ph = phi i32* [ %cond140580582592, %if.then447 ], [ %pli379.2.ph617, %if.else512 ]
  %exclChecksum.4.ph = phi i32 [ %exclChecksum.0720, %if.then447 ], [ %exclChecksum.5, %if.else512 ]
  br label %while.cond472.outer610

while.cond472.outer610:                           ; preds = %if.then510, %while.cond472.outer
  %idxprom452.pn.ph611 = phi i64 [ %idxprom481, %if.then510 ], [ %idxprom452.pn.ph, %while.cond472.outer ]
  %p_j_z461.0.ph612 = phi double [ %116, %if.then510 ], [ %p_j_z461.0.ph, %while.cond472.outer ]
  %p_j_y456.0.ph613 = phi double [ %115, %if.then510 ], [ %p_j_y456.0.ph, %while.cond472.outer ]
  %p_j_x451.0.ph614 = phi double [ %114, %if.then510 ], [ %p_j_x451.0.ph, %while.cond472.outer ]
  %j2448.0.ph615 = phi i32 [ %113, %if.then510 ], [ %j2448.0.ph, %while.cond472.outer ]
  %k445.0.ph616 = phi i32 [ %inc475, %if.then510 ], [ %k445.0.ph, %while.cond472.outer ]
  %pli379.2.ph617 = phi i32* [ %incdec.ptr511, %if.then510 ], [ %pli379.2.ph, %while.cond472.outer ]
  %exclChecksum.4.ph618 = phi i32 [ %exclChecksum.5, %if.then510 ], [ %exclChecksum.4.ph, %while.cond472.outer ]
  br label %while.cond472.outer619

while.cond472.outer619:                           ; preds = %land.lhs.true503, %while.cond472.outer610
  %idxprom452.pn.ph620 = phi i64 [ %idxprom481, %land.lhs.true503 ], [ %idxprom452.pn.ph611, %while.cond472.outer610 ]
  %p_j_z461.0.ph621 = phi double [ %116, %land.lhs.true503 ], [ %p_j_z461.0.ph612, %while.cond472.outer610 ]
  %p_j_y456.0.ph622 = phi double [ %115, %land.lhs.true503 ], [ %p_j_y456.0.ph613, %while.cond472.outer610 ]
  %p_j_x451.0.ph623 = phi double [ %114, %land.lhs.true503 ], [ %p_j_x451.0.ph614, %while.cond472.outer610 ]
  %j2448.0.ph624 = phi i32 [ %113, %land.lhs.true503 ], [ %j2448.0.ph615, %while.cond472.outer610 ]
  %k445.0.ph625 = phi i32 [ %inc475, %land.lhs.true503 ], [ %k445.0.ph616, %while.cond472.outer610 ]
  %exclChecksum.4.ph626 = phi i32 [ %inc504, %land.lhs.true503 ], [ %exclChecksum.4.ph618, %while.cond472.outer610 ]
  %111 = sext i32 %k445.0.ph625 to i64
  br label %while.cond472

while.cond472:                                    ; preds = %while.body474, %while.cond472.outer619
  %indvars.iv760 = phi i64 [ %111, %while.cond472.outer619 ], [ %indvars.iv.next761, %while.body474 ]
  %idxprom452.pn = phi i64 [ %idxprom452.pn.ph620, %while.cond472.outer619 ], [ %idxprom481, %while.body474 ]
  %p_j_z461.0 = phi double [ %p_j_z461.0.ph621, %while.cond472.outer619 ], [ %116, %while.body474 ]
  %p_j_y456.0 = phi double [ %p_j_y456.0.ph622, %while.cond472.outer619 ], [ %115, %while.body474 ]
  %p_j_x451.0 = phi double [ %p_j_x451.0.ph623, %while.cond472.outer619 ], [ %114, %while.body474 ]
  %j2448.0 = phi i32 [ %j2448.0.ph624, %while.cond472.outer619 ], [ %113, %while.body474 ]
  %k445.0 = phi i32 [ %k445.0.ph625, %while.cond472.outer619 ], [ %inc475, %while.body474 ]
  %112 = trunc i64 %indvars.iv760 to i32
  %cmp473 = icmp slt i32 %112, %pairlistindex.1
  br i1 %cmp473, label %while.body474, label %if.end523

while.body474:                                    ; preds = %while.cond472
  %atom2466.0.in.in.in = getelementptr inbounds %struct.CompAtom* %15, i64 %idxprom452.pn, i32 2
  %atom2466.0.in.in = bitcast [4 x i8]* %atom2466.0.in.in.in to i32*
  %atom2466.0.in = load i32* %atom2466.0.in.in, align 4
  %atom2466.0 = and i32 %atom2466.0.in, 4194303
  %indvars.iv.next761 = add nsw i64 %indvars.iv760, 1
  %inc475 = add nsw i32 %k445.0, 1
  %arrayidx477 = getelementptr inbounds i32* %cond129576578584590, i64 %indvars.iv.next761
  %113 = load i32* %arrayidx477, align 4, !tbaa !11
  %sub479 = fsub double %71, %p_j_x451.0
  %mul480 = fmul double %sub479, %sub479
  %idxprom481 = sext i32 %113 to i64
  %x484 = getelementptr inbounds %struct.CompAtom* %15, i64 %idxprom481, i32 0, i32 0
  %114 = load double* %x484, align 8, !tbaa !59
  %sub486 = fsub double %72, %p_j_y456.0
  %mul487 = fmul double %sub486, %sub486
  %add488 = fadd double %mul487, %mul480
  %y492 = getelementptr inbounds %struct.CompAtom* %15, i64 %idxprom481, i32 0, i32 1
  %115 = load double* %y492, align 8, !tbaa !61
  %sub493 = fsub double %73, %p_j_z461.0
  %mul494 = fmul double %sub493, %sub493
  %add495 = fadd double %mul494, %add488
  %z499 = getelementptr inbounds %struct.CompAtom* %15, i64 %idxprom481, i32 0, i32 2
  %116 = load double* %z499, align 8, !tbaa !62
  %cmp500 = fcmp ugt double %add495, %2
  br i1 %cmp500, label %while.cond472, label %land.lhs.true501

land.lhs.true501:                                 ; preds = %while.body474
  %cmp502 = fcmp ugt double %add495, %10
  br i1 %cmp502, label %if.then506, label %land.lhs.true503

land.lhs.true503:                                 ; preds = %land.lhs.true501
  %inc504 = add nsw i32 %exclChecksum.4.ph626, 1
  %tobool505 = icmp eq i32 %inc504, 0
  br i1 %tobool505, label %if.then506, label %while.cond472.outer619

if.then506:                                       ; preds = %land.lhs.true503, %land.lhs.true501
  %exclChecksum.5 = phi i32 [ 0, %land.lhs.true503 ], [ %exclChecksum.4.ph626, %land.lhs.true501 ]
  %cmp507 = icmp slt i32 %atom2466.0, %68
  %cmp509 = icmp sgt i32 %atom2466.0, %69
  %or.cond557 = or i1 %cmp507, %cmp509
  br i1 %or.cond557, label %if.else512, label %if.then510

if.then510:                                       ; preds = %if.then506
  %incdec.ptr511 = getelementptr inbounds i32* %pli379.2.ph617, i64 1
  store i32 %j2448.0, i32* %pli379.2.ph617, align 4, !tbaa !11
  br label %while.cond472.outer610

if.else512:                                       ; preds = %if.then506
  %incdec.ptr513 = getelementptr inbounds i32* %plin.2.ph, i64 1
  store i32 %j2448.0, i32* %plin.2.ph, align 4, !tbaa !11
  br label %while.cond472.outer

if.end523:                                        ; preds = %while.cond472, %if.else444, %for.inc441, %for.cond382.preheader
  %plin.4 = phi i32* [ %cond151586588, %if.else444 ], [ %cond151586588, %for.cond382.preheader ], [ %plin.2.ph, %while.cond472 ], [ %plin.1, %for.inc441 ]
  %pli379.4 = phi i32* [ %cond140580582592, %if.else444 ], [ %cond140580582592, %for.cond382.preheader ], [ %pli379.2.ph617, %while.cond472 ], [ %pli379.1, %for.inc441 ]
  %exclChecksum.7 = phi i32 [ %exclChecksum.0720, %if.else444 ], [ %exclChecksum.0720, %for.cond382.preheader ], [ %exclChecksum.4.ph626, %while.cond472 ], [ %exclChecksum.3, %for.inc441 ]
  %sub.ptr.lhs.cast524 = ptrtoint i32* %pli379.4 to i64
  %sub.ptr.sub526 = sub i64 %sub.ptr.lhs.cast524, %sub.ptr.rhs.cast525
  %sub.ptr.div527504 = lshr exact i64 %sub.ptr.sub526, 2
  %conv528 = trunc i64 %sub.ptr.div527504 to i32
  %tobool529 = icmp eq i32 %conv528, 0
  br i1 %tobool529, label %for.end560, label %for.cond538.preheader

for.cond538.preheader:                            ; preds = %if.end523
  %sub531 = shl i64 %sub.ptr.sub526, 30
  %sext544 = add i64 %sub531, -4294967296
  %idxprom532 = ashr exact i64 %sext544, 32
  %arrayidx533 = getelementptr inbounds i32* %cond140580582592, i64 %idxprom532
  %117 = load i32* %arrayidx533, align 4, !tbaa !11
  %idxprom534 = ashr exact i64 %sub531, 32
  %arrayidx535 = getelementptr inbounds i32* %cond140580582592, i64 %idxprom534
  store i32 %117, i32* %arrayidx535, align 4, !tbaa !11
  %cmp539642 = icmp sgt i32 %conv528, 0
  br i1 %cmp539642, label %for.body540.lr.ph, label %for.end560

for.body540.lr.ph:                                ; preds = %for.cond538.preheader
  %118 = sub i64 %sub.ptr.lhs.cast524, %sub.ptr.rhs.cast525
  %119 = lshr i64 %118, 2
  %120 = trunc i64 %119 to i32
  br label %for.body540

for.body540:                                      ; preds = %for.inc558, %for.body540.lr.ph
  %indvars.iv768 = phi i64 [ 0, %for.body540.lr.ph ], [ %indvars.iv.next769, %for.inc558 ]
  %plin.5646 = phi i32* [ %plin.4, %for.body540.lr.ph ], [ %plin.6, %for.inc558 ]
  %plix.0645 = phi i32* [ %cond162594, %for.body540.lr.ph ], [ %plix.1, %for.inc558 ]
  %plim.0644 = phi i32* [ %cond173, %for.body540.lr.ph ], [ %plim.1, %for.inc558 ]
  %arrayidx543 = getelementptr inbounds i32* %cond140580582592, i64 %indvars.iv768
  %121 = load i32* %arrayidx543, align 4, !tbaa !11
  %idxprom545 = sext i32 %121 to i64
  %id547 = getelementptr inbounds %struct.CompAtom* %15, i64 %idxprom545, i32 2
  %122 = bitcast [4 x i8]* %id547 to i32*
  %bf.load548 = load i32* %122, align 4
  %bf.clear549 = and i32 %bf.load548, 4194303
  %idxprom550543 = zext i32 %bf.clear549 to i64
  %add.ptr.sum = sub i64 %idxprom550543, %idx.ext
  %arrayidx551 = getelementptr inbounds i8* %70, i64 %add.ptr.sum
  %123 = load i8* %arrayidx551, align 1, !tbaa !68
  %conv552 = sext i8 %123 to i32
  switch i32 %conv552, label %for.inc558 [
    i32 0, label %sw.bb
    i32 1, label %sw.bb554
    i32 2, label %sw.bb556
  ]

sw.bb:                                            ; preds = %for.body540
  %incdec.ptr553 = getelementptr inbounds i32* %plin.5646, i64 1
  store i32 %121, i32* %plin.5646, align 4, !tbaa !11
  br label %for.inc558

sw.bb554:                                         ; preds = %for.body540
  %incdec.ptr555 = getelementptr inbounds i32* %plix.0645, i64 1
  store i32 %121, i32* %plix.0645, align 4, !tbaa !11
  br label %for.inc558

sw.bb556:                                         ; preds = %for.body540
  %incdec.ptr557 = getelementptr inbounds i32* %plim.0644, i64 1
  store i32 %121, i32* %plim.0644, align 4, !tbaa !11
  br label %for.inc558

for.inc558:                                       ; preds = %sw.bb556, %sw.bb554, %sw.bb, %for.body540
  %plim.1 = phi i32* [ %plim.0644, %for.body540 ], [ %incdec.ptr557, %sw.bb556 ], [ %plim.0644, %sw.bb554 ], [ %plim.0644, %sw.bb ]
  %plix.1 = phi i32* [ %plix.0645, %for.body540 ], [ %plix.0645, %sw.bb556 ], [ %incdec.ptr555, %sw.bb554 ], [ %plix.0645, %sw.bb ]
  %plin.6 = phi i32* [ %plin.5646, %for.body540 ], [ %plin.5646, %sw.bb556 ], [ %plin.5646, %sw.bb554 ], [ %incdec.ptr553, %sw.bb ]
  %indvars.iv.next769 = add nuw nsw i64 %indvars.iv768, 1
  %lftr.wideiv770 = trunc i64 %indvars.iv.next769 to i32
  %exitcond771 = icmp eq i32 %lftr.wideiv770, %120
  br i1 %exitcond771, label %for.end560, label %for.body540

for.end560:                                       ; preds = %for.inc558, %for.cond538.preheader, %if.end523
  %plin.5.lcssa = phi i32* [ %plin.4, %for.cond538.preheader ], [ %plin.4, %if.end523 ], [ %plin.6, %for.inc558 ]
  %plix.0.lcssa = phi i32* [ %cond162594, %for.cond538.preheader ], [ %cond162594, %if.end523 ], [ %plix.1, %for.inc558 ]
  %plim.0.lcssa = phi i32* [ %cond173, %for.cond538.preheader ], [ %cond173, %if.end523 ], [ %plim.1, %for.inc558 ]
  %sub.ptr.lhs.cast561 = ptrtoint i32* %plix.0.lcssa to i64
  %sub.ptr.sub563 = sub i64 %sub.ptr.lhs.cast561, %sub.ptr.rhs.cast562
  %sub.ptr.div564506 = lshr exact i64 %sub.ptr.sub563, 2
  %conv565505 = zext i32 %exclChecksum.7 to i64
  %sub.ptr.lhs.cast568 = ptrtoint i32* %plim.0.lcssa to i64
  %sub.ptr.sub570 = sub i64 %sub.ptr.lhs.cast568, %sub.ptr.rhs.cast569
  %sub.ptr.div571 = ashr exact i64 %sub.ptr.sub570, 2
  %add566 = add i64 %sub.ptr.div571, %conv565505
  %add573 = add i64 %add566, %sub.ptr.div564506
  %conv574 = trunc i64 %add573 to i32
  %sub.ptr.lhs.cast575 = ptrtoint i32* %plin.5.lcssa to i64
  %sub.ptr.sub577 = sub i64 %sub.ptr.lhs.cast575, %sub.ptr.rhs.cast576
  %sub.ptr.div578508 = lshr exact i64 %sub.ptr.sub577, 2
  %conv579 = trunc i64 %sub.ptr.div578508 to i32
  %cmp581650 = icmp sgt i32 %conv579, 0
  br i1 %cmp581650, label %for.body582.lr.ph, label %for.end739

for.body582.lr.ph:                                ; preds = %for.end560
  %x717 = getelementptr inbounds %class.Vector* %arrayidx193, i64 0, i32 0
  %y726 = getelementptr inbounds %class.Vector* %56, i64 %idxprom185, i32 1
  %z733 = getelementptr inbounds %class.Vector* %56, i64 %idxprom185, i32 2
  %124 = sub i64 %sub.ptr.lhs.cast575, %sub.ptr.rhs.cast576
  %125 = lshr i64 %124, 2
  %126 = trunc i64 %125 to i32
  br label %for.body582

for.body582:                                      ; preds = %for.body582.for.body582_crit_edge, %for.body582.lr.ph
  %127 = phi i32* [ %98, %for.body582.lr.ph ], [ %.pre, %for.body582.for.body582_crit_edge ]
  %indvars.iv772 = phi i64 [ 0, %for.body582.lr.ph ], [ %indvars.iv.next773, %for.body582.for.body582_crit_edge ]
  %128 = phi <2 x double> [ %61, %for.body582.lr.ph ], [ %183, %for.body582.for.body582_crit_edge ]
  %129 = phi <2 x double> [ %62, %for.body582.lr.ph ], [ %189, %for.body582.for.body582_crit_edge ]
  %130 = phi <2 x double> [ %63, %for.body582.lr.ph ], [ %208, %for.body582.for.body582_crit_edge ]
  %131 = phi <2 x double> [ %64, %for.body582.lr.ph ], [ %175, %for.body582.for.body582_crit_edge ]
  %132 = phi <2 x double> [ %65, %for.body582.lr.ph ], [ %196, %for.body582.for.body582_crit_edge ]
  %arrayidx585 = getelementptr inbounds i32* %cond151586588, i64 %indvars.iv772
  %133 = load i32* %arrayidx585, align 4, !tbaa !11
  %idx.ext586 = sext i32 %133 to i64
  %x589 = getelementptr inbounds %struct.CompAtom* %15, i64 %idx.ext586, i32 0, i32 0
  %134 = load double* %x589, align 8, !tbaa !59
  %sub590 = fsub double %71, %134
  %mul592 = fmul double %sub590, %sub590
  %y594 = getelementptr inbounds %struct.CompAtom* %15, i64 %idx.ext586, i32 0, i32 1
  %135 = load double* %y594, align 8, !tbaa !61
  %sub595 = fsub double %72, %135
  %mul596 = fmul double %sub595, %sub595
  %add597 = fadd double %mul592, %mul596
  %z599 = getelementptr inbounds %struct.CompAtom* %15, i64 %idx.ext586, i32 0, i32 2
  %136 = load double* %z599, align 8, !tbaa !62
  %sub600 = fsub double %73, %136
  %mul601 = fmul double %sub600, %sub600
  %add602 = fadd double %add597, %mul601
  %conv603 = fptrunc double %add602 to float
  %137 = bitcast float %conv603 to i32
  %shr = ashr i32 %137, 17
  %add605 = add nsw i32 %shr, %mul
  %id606 = getelementptr inbounds %struct.CompAtom* %15, i64 %idx.ext586, i32 2
  %138 = bitcast [4 x i8]* %id606 to i32*
  %bf.load607 = load i32* %138, align 4
  %bf.clear608 = and i32 %bf.load607, 4194303
  %idxprom.i560600 = zext i32 %bf.clear608 to i64
  %arrayidx.i562 = getelementptr inbounds i32* %127, i64 %idxprom.i560600
  %139 = load i32* %arrayidx.i562, align 4, !tbaa !11
  %conv.i563 = zext i32 %139 to i64
  %conv610 = shl nuw nsw i64 %conv.i563, 1
  %mul611 = and i64 %conv610, 131070
  %mul614 = shl nsw i32 %add605, 4
  %idx.ext615 = sext i32 %mul614 to i64
  %add.ptr616 = getelementptr inbounds double* %7, i64 %idx.ext615
  %140 = load double* %add.ptr616, align 8, !tbaa !17
  %add.ptr616.sum527 = or i64 %idx.ext615, 4
  %add.ptr621 = getelementptr inbounds double* %7, i64 %add.ptr616.sum527
  %141 = load double* %add.ptr621, align 8, !tbaa !17
  %add.ptr616.sum528 = or i64 %idx.ext615, 8
  %add.ptr626 = getelementptr inbounds double* %7, i64 %add.ptr616.sum528
  %142 = load double* %add.ptr626, align 8, !tbaa !17
  %and = and i32 %137, -131072
  %charge629 = getelementptr inbounds %struct.CompAtom* %15, i64 %idx.ext586, i32 1
  %143 = load float* %charge629, align 4, !tbaa !63
  %conv630 = fpext float %143 to double
  %mul631 = fmul double %mul372, %conv630
  %144 = bitcast i32 %and to float
  %conv633 = fpext float %144 to double
  %sub634 = fsub double %add602, %conv633
  %bf.lshr637 = lshr i32 %bf.load607, 28
  %mul638 = shl nuw nsw i32 %bf.lshr637, 1
  %idxprom639529 = zext i32 %mul638 to i64
  %add.ptr368.sum530 = add i64 %idxprom639529, %idx.ext367503
  %arrayidx640 = getelementptr inbounds double* %96, i64 %add.ptr368.sum530
  %145 = load double* %arrayidx640, align 8, !tbaa !17
  %add642531 = or i32 %mul638, 1
  %idxprom643532 = zext i32 %add642531 to i64
  %add.ptr368.sum533 = add i64 %idxprom643532, %idx.ext367503
  %arrayidx644 = getelementptr inbounds double* %96, i64 %add.ptr368.sum533
  %146 = load double* %arrayidx644, align 8, !tbaa !17
  %add.ptr.i.sum601 = add i64 %mul611, %idx.ext.i
  %A646 = getelementptr inbounds %"struct.LJTable::TableEntry"* %100, i64 %add.ptr.i.sum601, i32 0
  %147 = load double* %A646, align 8, !tbaa !69
  %mul647 = fmul double %8, %147
  %B649 = getelementptr inbounds %"struct.LJTable::TableEntry"* %100, i64 %add.ptr.i.sum601, i32 1
  %148 = load double* %B649, align 8, !tbaa !71
  %mul650 = fmul double %8, %148
  %mul651 = fmul double %140, %mul647
  %mul652 = fmul double %141, %mul650
  %sub653 = fsub double %mul651, %mul652
  %add.ptr616.sum534 = or i64 %idx.ext615, 3
  %arrayidx654 = getelementptr inbounds double* %7, i64 %add.ptr616.sum534
  %149 = load double* %arrayidx654, align 8, !tbaa !17
  %mul655 = fmul double %mul647, %149
  %add.ptr621.sum535 = or i64 %idx.ext615, 7
  %arrayidx656 = getelementptr inbounds double* %7, i64 %add.ptr621.sum535
  %150 = load double* %arrayidx656, align 8, !tbaa !17
  %mul657 = fmul double %mul650, %150
  %sub658 = fsub double %mul655, %mul657
  %add.ptr616.sum536 = or i64 %idx.ext615, 2
  %arrayidx659 = getelementptr inbounds double* %7, i64 %add.ptr616.sum536
  %151 = load double* %arrayidx659, align 8, !tbaa !17
  %mul660 = fmul double %mul647, %151
  %add.ptr621.sum537 = or i64 %idx.ext615, 6
  %arrayidx661 = getelementptr inbounds double* %7, i64 %add.ptr621.sum537
  %152 = load double* %arrayidx661, align 8, !tbaa !17
  %mul662 = fmul double %mul650, %152
  %sub663 = fsub double %mul660, %mul662
  %add.ptr616.sum538 = or i64 %idx.ext615, 1
  %arrayidx664 = getelementptr inbounds double* %7, i64 %add.ptr616.sum538
  %153 = load double* %arrayidx664, align 8, !tbaa !17
  %mul665 = fmul double %mul647, %153
  %add.ptr621.sum539 = or i64 %idx.ext615, 5
  %arrayidx666 = getelementptr inbounds double* %7, i64 %add.ptr621.sum539
  %154 = load double* %arrayidx666, align 8, !tbaa !17
  %mul667 = fmul double %mul650, %154
  %sub668 = fsub double %mul665, %mul667
  %mul669 = fmul double %sub634, %sub658
  %add670 = fadd double %mul669, %sub663
  %mul679 = fmul double %142, %mul631
  %add.ptr626.sum540 = or i64 %idx.ext615, 11
  %arrayidx680 = getelementptr inbounds double* %7, i64 %add.ptr626.sum540
  %155 = load double* %arrayidx680, align 8, !tbaa !17
  %mul681 = fmul double %mul631, %155
  %add.ptr626.sum541 = or i64 %idx.ext615, 10
  %arrayidx682 = getelementptr inbounds double* %7, i64 %add.ptr626.sum541
  %156 = load double* %arrayidx682, align 8, !tbaa !17
  %mul683 = fmul double %mul631, %156
  %add.ptr626.sum542 = or i64 %idx.ext615, 9
  %arrayidx684 = getelementptr inbounds double* %7, i64 %add.ptr626.sum542
  %157 = load double* %arrayidx684, align 8, !tbaa !17
  %158 = insertelement <2 x double> undef, double %mul631, i32 0
  %159 = insertelement <2 x double> %158, double %add670, i32 1
  %160 = insertelement <2 x double> undef, double %157, i32 0
  %161 = insertelement <2 x double> %160, double %sub634, i32 1
  %162 = fmul <2 x double> %159, %161
  %mul686 = fmul double %sub634, %mul681
  %add687 = fadd double %mul686, %mul683
  %mul688 = fmul double %sub634, %add687
  %163 = insertelement <2 x double> undef, double %mul688, i32 0
  %164 = insertelement <2 x double> %163, double %sub668, i32 1
  %165 = fadd <2 x double> %162, %164
  %166 = insertelement <2 x double> undef, double %sub634, i32 0
  %167 = insertelement <2 x double> %166, double %sub634, i32 1
  %168 = fmul <2 x double> %165, %167
  %169 = insertelement <2 x double> undef, double %mul679, i32 0
  %170 = insertelement <2 x double> %169, double %sub653, i32 1
  %171 = fadd <2 x double> %170, %168
  %172 = insertelement <2 x double> undef, double %145, i32 0
  %173 = insertelement <2 x double> %172, double %146, i32 1
  %174 = fmul <2 x double> %173, %171
  %175 = fadd <2 x double> %131, %174
  %176 = extractelement <2 x double> %171, i32 0
  %add696 = fadd double %sub658, %mul681
  %add697 = fadd double %sub663, %mul683
  %177 = extractelement <2 x double> %162, i32 0
  %add698 = fadd double %sub668, %177
  %mul700 = fmul double %sub634, 3.000000e+00
  %mul701 = fmul double %mul700, %add696
  %mul702 = fmul double %add697, 2.000000e+00
  %add703 = fadd double %mul701, %mul702
  %mul704 = fmul double %sub634, %add703
  %add705 = fadd double %add698, %mul704
  %mul706 = fmul double %145, -2.000000e+00
  %mul707 = fmul double %mul706, %add705
  %mul710 = fmul double %sub590, %mul707
  %178 = extractelement <2 x double> %171, i32 1
  %179 = insertelement <2 x double> undef, double %178, i32 0
  %180 = insertelement <2 x double> %179, double %sub590, i32 1
  %181 = insertelement <2 x double> %172, double %mul710, i32 1
  %182 = fmul <2 x double> %180, %181
  %183 = fadd <2 x double> %128, %182
  %184 = insertelement <2 x double> undef, double %sub595, i32 0
  %185 = insertelement <2 x double> %184, double %sub600, i32 1
  %186 = insertelement <2 x double> undef, double %mul710, i32 0
  %187 = insertelement <2 x double> %186, double %mul710, i32 1
  %188 = fmul <2 x double> %185, %187
  %189 = fadd <2 x double> %129, %188
  %190 = load double* %x717, align 8, !tbaa !72
  %add718 = fadd double %190, %mul710
  store double %add718, double* %x717, align 8, !tbaa !72
  %x719 = getelementptr inbounds %class.Vector* %57, i64 %idx.ext586, i32 0
  %mul721 = fmul double %sub595, %mul707
  %191 = insertelement <2 x double> undef, double %146, i32 0
  %192 = insertelement <2 x double> %191, double %sub595, i32 1
  %193 = insertelement <2 x double> undef, double %176, i32 0
  %194 = insertelement <2 x double> %193, double %mul721, i32 1
  %195 = fmul <2 x double> %192, %194
  %196 = fadd <2 x double> %132, %195
  %197 = load double* %y726, align 8, !tbaa !73
  %add727 = fadd double %197, %mul721
  store double %add727, double* %y726, align 8, !tbaa !73
  %198 = bitcast double* %x719 to <2 x double>*
  %199 = load <2 x double>* %198, align 8, !tbaa !17
  %200 = insertelement <2 x double> %186, double %mul721, i32 1
  %201 = fsub <2 x double> %199, %200
  %202 = bitcast double* %x719 to <2 x double>*
  store <2 x double> %201, <2 x double>* %202, align 8, !tbaa !17
  %mul730 = fmul double %sub600, %mul707
  %203 = insertelement <2 x double> undef, double %sub600, i32 0
  %204 = insertelement <2 x double> %203, double %sub600, i32 1
  %205 = insertelement <2 x double> undef, double %mul721, i32 0
  %206 = insertelement <2 x double> %205, double %mul730, i32 1
  %207 = fmul <2 x double> %204, %206
  %208 = fadd <2 x double> %130, %207
  %209 = load double* %z733, align 8, !tbaa !74
  %add734 = fadd double %209, %mul730
  store double %add734, double* %z733, align 8, !tbaa !74
  %z735 = getelementptr inbounds %class.Vector* %57, i64 %idx.ext586, i32 2
  %210 = load double* %z735, align 8, !tbaa !74
  %sub736 = fsub double %210, %mul730
  store double %sub736, double* %z735, align 8, !tbaa !74
  %indvars.iv.next773 = add nuw nsw i64 %indvars.iv772, 1
  %lftr.wideiv774 = trunc i64 %indvars.iv.next773 to i32
  %exitcond775 = icmp eq i32 %lftr.wideiv774, %126
  br i1 %exitcond775, label %for.end739, label %for.body582.for.body582_crit_edge

for.body582.for.body582_crit_edge:                ; preds = %for.body582
  %.pre = load i32** %atomVdwType.i565, align 8, !tbaa !64
  br label %for.body582

for.end739:                                       ; preds = %for.body582, %for.end560
  %211 = phi <2 x double> [ %61, %for.end560 ], [ %183, %for.body582 ]
  %212 = phi <2 x double> [ %62, %for.end560 ], [ %189, %for.body582 ]
  %213 = phi <2 x double> [ %63, %for.end560 ], [ %208, %for.body582 ]
  %214 = phi <2 x double> [ %64, %for.end560 ], [ %175, %for.body582 ]
  %215 = phi <2 x double> [ %65, %for.end560 ], [ %196, %for.body582 ]
  %conv744 = trunc i64 %sub.ptr.div571 to i32
  %cmp746672 = icmp sgt i32 %conv744, 0
  br i1 %cmp746672, label %for.body747.lr.ph, label %for.inc944

for.body747.lr.ph:                                ; preds = %for.end739
  %x919 = getelementptr inbounds %class.Vector* %arrayidx193, i64 0, i32 0
  %y929 = getelementptr inbounds %class.Vector* %56, i64 %idxprom185, i32 1
  %z937 = getelementptr inbounds %class.Vector* %56, i64 %idxprom185, i32 2
  br label %for.body747

for.body747:                                      ; preds = %for.body747, %for.body747.lr.ph
  %indvars.iv776 = phi i64 [ 0, %for.body747.lr.ph ], [ %indvars.iv.next777, %for.body747 ]
  %216 = phi <2 x double> [ %211, %for.body747.lr.ph ], [ %272, %for.body747 ]
  %217 = phi <2 x double> [ %212, %for.body747.lr.ph ], [ %278, %for.body747 ]
  %218 = phi <2 x double> [ %213, %for.body747.lr.ph ], [ %297, %for.body747 ]
  %219 = phi <2 x double> [ %214, %for.body747.lr.ph ], [ %264, %for.body747 ]
  %220 = phi <2 x double> [ %215, %for.body747.lr.ph ], [ %285, %for.body747 ]
  %arrayidx750 = getelementptr inbounds i32* %cond173, i64 %indvars.iv776
  %221 = load i32* %arrayidx750, align 4, !tbaa !11
  %idx.ext752 = sext i32 %221 to i64
  %x756 = getelementptr inbounds %struct.CompAtom* %15, i64 %idx.ext752, i32 0, i32 0
  %222 = load double* %x756, align 8, !tbaa !59
  %sub757 = fsub double %71, %222
  %mul759 = fmul double %sub757, %sub757
  %y762 = getelementptr inbounds %struct.CompAtom* %15, i64 %idx.ext752, i32 0, i32 1
  %223 = load double* %y762, align 8, !tbaa !61
  %sub763 = fsub double %72, %223
  %mul764 = fmul double %sub763, %sub763
  %add765 = fadd double %mul759, %mul764
  %z768 = getelementptr inbounds %struct.CompAtom* %15, i64 %idx.ext752, i32 0, i32 2
  %224 = load double* %z768, align 8, !tbaa !62
  %sub769 = fsub double %73, %224
  %mul770 = fmul double %sub769, %sub769
  %add771 = fadd double %add765, %mul770
  %conv773 = fptrunc double %add771 to float
  %225 = bitcast float %conv773 to i32
  %shr777 = ashr i32 %225, 17
  %add778 = add nsw i32 %shr777, %mul
  %id780 = getelementptr inbounds %struct.CompAtom* %15, i64 %idx.ext752, i32 2
  %226 = bitcast [4 x i8]* %id780 to i32*
  %bf.load781 = load i32* %226, align 4
  %bf.clear782 = and i32 %bf.load781, 4194303
  %idxprom.i558598 = zext i32 %bf.clear782 to i64
  %227 = load i32** %atomVdwType.i565, align 8, !tbaa !64
  %arrayidx.i559 = getelementptr inbounds i32* %227, i64 %idxprom.i558598
  %228 = load i32* %arrayidx.i559, align 4, !tbaa !11
  %conv.i = zext i32 %228 to i64
  %conv784 = shl nuw nsw i64 %conv.i, 1
  %mul785 = and i64 %conv784, 131070
  %add.ptr787.sum510 = or i64 %mul785, 1
  %mul790 = shl nsw i32 %add778, 4
  %idx.ext791 = sext i32 %mul790 to i64
  %add.ptr792 = getelementptr inbounds double* %7, i64 %idx.ext791
  %229 = load double* %add.ptr792, align 8, !tbaa !17
  %add.ptr792.sum511 = or i64 %idx.ext791, 4
  %add.ptr799 = getelementptr inbounds double* %7, i64 %add.ptr792.sum511
  %230 = load double* %add.ptr799, align 8, !tbaa !17
  %add.ptr792.sum512 = or i64 %idx.ext791, 8
  %add.ptr806 = getelementptr inbounds double* %7, i64 %add.ptr792.sum512
  %231 = load double* %add.ptr806, align 8, !tbaa !17
  %and810 = and i32 %225, -131072
  %charge812 = getelementptr inbounds %struct.CompAtom* %15, i64 %idx.ext752, i32 1
  %232 = load float* %charge812, align 4, !tbaa !63
  %conv813 = fpext float %232 to double
  %mul814 = fmul double %mul372, %conv813
  %233 = bitcast i32 %and810 to float
  %conv817 = fpext float %233 to double
  %sub818 = fsub double %add771, %conv817
  %bf.lshr822 = lshr i32 %bf.load781, 28
  %mul824 = shl nuw nsw i32 %bf.lshr822, 1
  %idxprom825513 = zext i32 %mul824 to i64
  %add.ptr368.sum = add i64 %idxprom825513, %idx.ext367503
  %arrayidx826 = getelementptr inbounds double* %96, i64 %add.ptr368.sum
  %234 = load double* %arrayidx826, align 8, !tbaa !17
  %add829514 = or i32 %mul824, 1
  %idxprom830515 = zext i32 %add829514 to i64
  %add.ptr368.sum516 = add i64 %idxprom830515, %idx.ext367503
  %arrayidx831 = getelementptr inbounds double* %96, i64 %add.ptr368.sum516
  %235 = load double* %arrayidx831, align 8, !tbaa !17
  %add.ptr.i.sum = add i64 %add.ptr787.sum510, %idx.ext.i
  %A833 = getelementptr inbounds %"struct.LJTable::TableEntry"* %100, i64 %add.ptr.i.sum, i32 0
  %236 = load double* %A833, align 8, !tbaa !69
  %mul834 = fmul double %8, %236
  %B836 = getelementptr inbounds %"struct.LJTable::TableEntry"* %100, i64 %add.ptr.i.sum, i32 1
  %237 = load double* %B836, align 8, !tbaa !71
  %mul837 = fmul double %8, %237
  %mul839 = fmul double %229, %mul834
  %mul840 = fmul double %230, %mul837
  %sub841 = fsub double %mul839, %mul840
  %add.ptr792.sum517 = or i64 %idx.ext791, 3
  %arrayidx843 = getelementptr inbounds double* %7, i64 %add.ptr792.sum517
  %238 = load double* %arrayidx843, align 8, !tbaa !17
  %mul844 = fmul double %mul834, %238
  %add.ptr799.sum518 = or i64 %idx.ext791, 7
  %arrayidx845 = getelementptr inbounds double* %7, i64 %add.ptr799.sum518
  %239 = load double* %arrayidx845, align 8, !tbaa !17
  %mul846 = fmul double %mul837, %239
  %sub847 = fsub double %mul844, %mul846
  %add.ptr792.sum519 = or i64 %idx.ext791, 2
  %arrayidx849 = getelementptr inbounds double* %7, i64 %add.ptr792.sum519
  %240 = load double* %arrayidx849, align 8, !tbaa !17
  %mul850 = fmul double %mul834, %240
  %add.ptr799.sum520 = or i64 %idx.ext791, 6
  %arrayidx851 = getelementptr inbounds double* %7, i64 %add.ptr799.sum520
  %241 = load double* %arrayidx851, align 8, !tbaa !17
  %mul852 = fmul double %mul837, %241
  %sub853 = fsub double %mul850, %mul852
  %add.ptr792.sum521 = or i64 %idx.ext791, 1
  %arrayidx855 = getelementptr inbounds double* %7, i64 %add.ptr792.sum521
  %242 = load double* %arrayidx855, align 8, !tbaa !17
  %mul856 = fmul double %mul834, %242
  %add.ptr799.sum522 = or i64 %idx.ext791, 5
  %arrayidx857 = getelementptr inbounds double* %7, i64 %add.ptr799.sum522
  %243 = load double* %arrayidx857, align 8, !tbaa !17
  %mul858 = fmul double %mul837, %243
  %sub859 = fsub double %mul856, %mul858
  %mul861 = fmul double %sub818, %sub847
  %add862 = fadd double %mul861, %sub853
  %mul872 = fmul double %sub871, %mul814
  %mul873 = fmul double %231, %mul872
  %add.ptr806.sum523 = or i64 %idx.ext791, 11
  %arrayidx875 = getelementptr inbounds double* %7, i64 %add.ptr806.sum523
  %244 = load double* %arrayidx875, align 8, !tbaa !17
  %mul876 = fmul double %mul872, %244
  %add.ptr806.sum524 = or i64 %idx.ext791, 10
  %arrayidx878 = getelementptr inbounds double* %7, i64 %add.ptr806.sum524
  %245 = load double* %arrayidx878, align 8, !tbaa !17
  %mul879 = fmul double %mul872, %245
  %add.ptr806.sum525 = or i64 %idx.ext791, 9
  %arrayidx881 = getelementptr inbounds double* %7, i64 %add.ptr806.sum525
  %246 = load double* %arrayidx881, align 8, !tbaa !17
  %247 = insertelement <2 x double> undef, double %mul872, i32 0
  %248 = insertelement <2 x double> %247, double %add862, i32 1
  %249 = insertelement <2 x double> undef, double %246, i32 0
  %250 = insertelement <2 x double> %249, double %sub818, i32 1
  %251 = fmul <2 x double> %248, %250
  %mul884 = fmul double %sub818, %mul876
  %add885 = fadd double %mul884, %mul879
  %mul886 = fmul double %sub818, %add885
  %252 = insertelement <2 x double> undef, double %mul886, i32 0
  %253 = insertelement <2 x double> %252, double %sub859, i32 1
  %254 = fadd <2 x double> %251, %253
  %255 = insertelement <2 x double> undef, double %sub818, i32 0
  %256 = insertelement <2 x double> %255, double %sub818, i32 1
  %257 = fmul <2 x double> %254, %256
  %258 = insertelement <2 x double> undef, double %mul873, i32 0
  %259 = insertelement <2 x double> %258, double %sub841, i32 1
  %260 = fadd <2 x double> %259, %257
  %261 = insertelement <2 x double> undef, double %234, i32 0
  %262 = insertelement <2 x double> %261, double %235, i32 1
  %263 = fmul <2 x double> %262, %260
  %264 = fadd <2 x double> %219, %263
  %265 = extractelement <2 x double> %260, i32 0
  %add894 = fadd double %sub847, %mul876
  %add895 = fadd double %sub853, %mul879
  %266 = extractelement <2 x double> %251, i32 0
  %add896 = fadd double %sub859, %266
  %mul899 = fmul double %sub818, 3.000000e+00
  %mul900 = fmul double %mul899, %add894
  %mul901 = fmul double %add895, 2.000000e+00
  %add902 = fadd double %mul900, %mul901
  %mul903 = fmul double %sub818, %add902
  %add904 = fadd double %add896, %mul903
  %mul906 = fmul double %234, -2.000000e+00
  %mul907 = fmul double %mul906, %add904
  %mul912 = fmul double %sub757, %mul907
  %267 = extractelement <2 x double> %260, i32 1
  %268 = insertelement <2 x double> undef, double %267, i32 0
  %269 = insertelement <2 x double> %268, double %sub757, i32 1
  %270 = insertelement <2 x double> %261, double %mul912, i32 1
  %271 = fmul <2 x double> %269, %270
  %272 = fadd <2 x double> %216, %271
  %273 = insertelement <2 x double> undef, double %sub763, i32 0
  %274 = insertelement <2 x double> %273, double %sub769, i32 1
  %275 = insertelement <2 x double> undef, double %mul912, i32 0
  %276 = insertelement <2 x double> %275, double %mul912, i32 1
  %277 = fmul <2 x double> %274, %276
  %278 = fadd <2 x double> %217, %277
  %279 = load double* %x919, align 8, !tbaa !72
  %add920 = fadd double %279, %mul912
  store double %add920, double* %x919, align 8, !tbaa !72
  %x921 = getelementptr inbounds %class.Vector* %57, i64 %idx.ext752, i32 0
  %mul924 = fmul double %sub763, %mul907
  %280 = insertelement <2 x double> undef, double %235, i32 0
  %281 = insertelement <2 x double> %280, double %sub763, i32 1
  %282 = insertelement <2 x double> undef, double %265, i32 0
  %283 = insertelement <2 x double> %282, double %mul924, i32 1
  %284 = fmul <2 x double> %281, %283
  %285 = fadd <2 x double> %220, %284
  %286 = load double* %y929, align 8, !tbaa !73
  %add930 = fadd double %286, %mul924
  store double %add930, double* %y929, align 8, !tbaa !73
  %287 = bitcast double* %x921 to <2 x double>*
  %288 = load <2 x double>* %287, align 8, !tbaa !17
  %289 = insertelement <2 x double> %275, double %mul924, i32 1
  %290 = fsub <2 x double> %288, %289
  %291 = bitcast double* %x921 to <2 x double>*
  store <2 x double> %290, <2 x double>* %291, align 8, !tbaa !17
  %mul934 = fmul double %sub769, %mul907
  %292 = insertelement <2 x double> undef, double %sub769, i32 0
  %293 = insertelement <2 x double> %292, double %sub769, i32 1
  %294 = insertelement <2 x double> undef, double %mul924, i32 0
  %295 = insertelement <2 x double> %294, double %mul934, i32 1
  %296 = fmul <2 x double> %293, %295
  %297 = fadd <2 x double> %218, %296
  %298 = load double* %z937, align 8, !tbaa !74
  %add938 = fadd double %298, %mul934
  store double %add938, double* %z937, align 8, !tbaa !74
  %z939 = getelementptr inbounds %class.Vector* %57, i64 %idx.ext752, i32 2
  %299 = load double* %z939, align 8, !tbaa !74
  %sub940 = fsub double %299, %mul934
  store double %sub940, double* %z939, align 8, !tbaa !74
  %indvars.iv.next777 = add nuw nsw i64 %indvars.iv776, 1
  %lftr.wideiv778 = trunc i64 %indvars.iv.next777 to i32
  %exitcond779 = icmp eq i32 %lftr.wideiv778, %conv744
  br i1 %exitcond779, label %for.inc944, label %for.body747

for.inc944:                                       ; preds = %for.body747, %for.end739, %cond.end349, %if.then221
  %pairCount.3 = phi i32 [ %add217, %if.then221 ], [ %pairCount.1, %cond.end349 ], [ %pairCount.2, %for.end739 ], [ %pairCount.2, %for.body747 ]
  %pairlistindex.2 = phi i32 [ %pairlistindex.0698, %if.then221 ], [ 0, %cond.end349 ], [ %pairlistindex.1, %for.end739 ], [ %pairlistindex.1, %for.body747 ]
  %i.2 = phi i32 [ %add223, %if.then221 ], [ %add352, %cond.end349 ], [ %i.1699, %for.end739 ], [ %i.1699, %for.body747 ]
  %exclChecksum.8 = phi i32 [ %exclChecksum.0720, %if.then221 ], [ %exclChecksum.0720, %cond.end349 ], [ %conv574, %for.end739 ], [ %conv574, %for.body747 ]
  %300 = phi <2 x double> [ %61, %if.then221 ], [ %61, %cond.end349 ], [ %211, %for.end739 ], [ %272, %for.body747 ]
  %301 = phi <2 x double> [ %62, %if.then221 ], [ %62, %cond.end349 ], [ %212, %for.end739 ], [ %278, %for.body747 ]
  %302 = phi <2 x double> [ %63, %if.then221 ], [ %63, %cond.end349 ], [ %213, %for.end739 ], [ %297, %for.body747 ]
  %303 = phi <2 x double> [ %64, %if.then221 ], [ %64, %cond.end349 ], [ %214, %for.end739 ], [ %264, %for.body747 ]
  %304 = phi <2 x double> [ %65, %if.then221 ], [ %65, %cond.end349 ], [ %215, %for.end739 ], [ %285, %for.body747 ]
  %inc945 = add nsw i32 %i.2, 1
  %cmp183 = icmp slt i32 %inc945, %12
  br i1 %cmp183, label %for.body184, label %for.end946

for.end946:                                       ; preds = %for.inc944, %cond.end172
  %exclChecksum.0.lcssa = phi i32 [ 0, %cond.end172 ], [ %exclChecksum.8, %for.inc944 ]
  %305 = phi <2 x double> [ zeroinitializer, %cond.end172 ], [ %300, %for.inc944 ]
  %306 = phi <2 x double> [ zeroinitializer, %cond.end172 ], [ %301, %for.inc944 ]
  %307 = phi <2 x double> [ zeroinitializer, %cond.end172 ], [ %302, %for.inc944 ]
  %308 = phi <2 x double> [ zeroinitializer, %cond.end172 ], [ %303, %for.inc944 ]
  %309 = phi <2 x double> [ zeroinitializer, %cond.end172 ], [ %304, %for.inc944 ]
  %310 = extractelement <2 x double> %308, i32 1
  %311 = extractelement <2 x double> %308, i32 0
  %arraydecay947 = getelementptr inbounds [1005 x i32]* %grouplist_std, i64 0, i64 0
  %cmp948 = icmp eq i32* %cond568570795801, %arraydecay947
  br i1 %cmp948, label %if.end953, label %delete.notnull951

delete.notnull951:                                ; preds = %for.end946
  %312 = bitcast i32* %cond568570795801 to i8*
  call void @_ZdaPv(i8* %312) #7
  br label %if.end953

if.end953:                                        ; preds = %delete.notnull951, %for.end946
  %arraydecay954 = getelementptr inbounds [1005 x i32]* %fixglist_std, i64 0, i64 0
  %cmp955 = icmp eq i32* %cond19572793802, %arraydecay954
  br i1 %cmp955, label %if.end960, label %delete.notnull958

delete.notnull958:                                ; preds = %if.end953
  %313 = bitcast i32* %cond19572793802 to i8*
  call void @_ZdaPv(i8* %313) #7
  br label %if.end960

if.end960:                                        ; preds = %delete.notnull958, %if.end953
  %arraydecay961 = getelementptr inbounds [1005 x i32]* %goodglist_std, i64 0, i64 0
  %cmp962 = icmp eq i32* %cond30797800, %arraydecay961
  br i1 %cmp962, label %if.end967, label %delete.notnull965

delete.notnull965:                                ; preds = %if.end960
  %314 = bitcast i32* %cond30797800 to i8*
  call void @_ZdaPv(i8* %314) #7
  br label %if.end967

if.end967:                                        ; preds = %delete.notnull965, %if.end960
  %arraydecay968 = getelementptr inbounds [1005 x i32]* %pairlist_std, i64 0, i64 0
  %cmp969 = icmp eq i32* %cond129576578584590, %arraydecay968
  br i1 %cmp969, label %if.end974, label %delete.notnull972

delete.notnull972:                                ; preds = %if.end967
  %315 = bitcast i32* %cond129576578584590 to i8*
  call void @_ZdaPv(i8* %315) #7
  br label %if.end974

if.end974:                                        ; preds = %delete.notnull972, %if.end967
  %arraydecay975 = getelementptr inbounds [1005 x i32]* %pairlist2_std, i64 0, i64 0
  %cmp976 = icmp eq i32* %cond140580582592, %arraydecay975
  br i1 %cmp976, label %if.end981, label %delete.notnull979

delete.notnull979:                                ; preds = %if.end974
  %316 = bitcast i32* %cond140580582592 to i8*
  call void @_ZdaPv(i8* %316) #7
  br label %if.end981

if.end981:                                        ; preds = %delete.notnull979, %if.end974
  %arraydecay982 = getelementptr inbounds [1005 x i32]* %pairlistn_std, i64 0, i64 0
  %cmp983 = icmp eq i32* %cond151586588, %arraydecay982
  br i1 %cmp983, label %if.end988, label %delete.notnull986

delete.notnull986:                                ; preds = %if.end981
  %317 = bitcast i32* %cond151586588 to i8*
  call void @_ZdaPv(i8* %317) #7
  br label %if.end988

if.end988:                                        ; preds = %delete.notnull986, %if.end981
  %arraydecay989 = getelementptr inbounds [1005 x i32]* %pairlistx_std, i64 0, i64 0
  %cmp990 = icmp eq i32* %cond162594, %arraydecay989
  br i1 %cmp990, label %if.end995, label %delete.notnull993

delete.notnull993:                                ; preds = %if.end988
  %318 = bitcast i32* %cond162594 to i8*
  call void @_ZdaPv(i8* %318) #7
  br label %if.end995

if.end995:                                        ; preds = %delete.notnull993, %if.end988
  %arraydecay996 = getelementptr inbounds [1005 x i32]* %pairlistm_std, i64 0, i64 0
  %cmp997 = icmp eq i32* %cond173, %arraydecay996
  br i1 %cmp997, label %if.end1002, label %delete.notnull1000

delete.notnull1000:                               ; preds = %if.end995
  %319 = bitcast i32* %cond173 to i8*
  call void @_ZdaPv(i8* %319) #7
  br label %if.end1002

if.end1002:                                       ; preds = %delete.notnull1000, %if.end995
  %conv1003 = sitofp i32 %exclChecksum.0.lcssa to double
  %arrayidx1004 = getelementptr inbounds double* %1, i64 22
  %arrayidx1006 = getelementptr inbounds double* %1, i64 2
  %320 = load double* %1, align 8, !tbaa !17
  %add1009 = fadd double %311, %320
  store double %add1009, double* %1, align 8, !tbaa !17
  %arrayidx1010 = getelementptr inbounds double* %1, i64 25
  %321 = load double* %arrayidx1010, align 8, !tbaa !17
  %add1011 = fadd double %310, %321
  store double %add1011, double* %arrayidx1010, align 8, !tbaa !17
  %322 = bitcast double* %arrayidx1004 to <2 x double>*
  %323 = load <2 x double>* %322, align 8, !tbaa !17
  %324 = insertelement <2 x double> undef, double %conv1003, i32 0
  %325 = shufflevector <2 x double> %324, <2 x double> %309, <2 x i32> <i32 0, i32 2>
  %326 = fadd <2 x double> %325, %323
  %327 = bitcast double* %arrayidx1004 to <2 x double>*
  store <2 x double> %326, <2 x double>* %327, align 8, !tbaa !17
  %328 = bitcast double* %arrayidx1006 to <2 x double>*
  %329 = load <2 x double>* %328, align 8, !tbaa !17
  %330 = fadd <2 x double> %305, %329
  %331 = bitcast double* %arrayidx1006 to <2 x double>*
  store <2 x double> %330, <2 x double>* %331, align 8, !tbaa !17
  %arrayidx1016 = getelementptr inbounds double* %1, i64 4
  %332 = bitcast double* %arrayidx1016 to <2 x double>*
  %333 = load <2 x double>* %332, align 8, !tbaa !17
  %334 = fadd <2 x double> %306, %333
  %335 = bitcast double* %arrayidx1016 to <2 x double>*
  store <2 x double> %334, <2 x double>* %335, align 8, !tbaa !17
  %arrayidx1020 = getelementptr inbounds double* %1, i64 6
  %336 = bitcast double* %arrayidx1020 to <2 x double>*
  %337 = load <2 x double>* %336, align 8, !tbaa !17
  %338 = shufflevector <2 x double> %306, <2 x double> %309, <2 x i32> <i32 0, i32 3>
  %339 = fadd <2 x double> %338, %337
  %340 = bitcast double* %arrayidx1020 to <2 x double>*
  store <2 x double> %339, <2 x double>* %340, align 8, !tbaa !17
  %arrayidx1024 = getelementptr inbounds double* %1, i64 8
  %341 = bitcast double* %arrayidx1024 to <2 x double>*
  %342 = load <2 x double>* %341, align 8, !tbaa !17
  %343 = shufflevector <2 x double> %307, <2 x double> %306, <2 x i32> <i32 0, i32 3>
  %344 = fadd <2 x double> %343, %342
  %345 = bitcast double* %arrayidx1024 to <2 x double>*
  store <2 x double> %344, <2 x double>* %345, align 8, !tbaa !17
  %arrayidx1028 = getelementptr inbounds double* %1, i64 10
  %346 = bitcast double* %arrayidx1028 to <2 x double>*
  %347 = load <2 x double>* %346, align 8, !tbaa !17
  %348 = fadd <2 x double> %307, %347
  %349 = bitcast double* %arrayidx1028 to <2 x double>*
  store <2 x double> %348, <2 x double>* %349, align 8, !tbaa !17
  call void @llvm.lifetime.end(i64 4020, i8* %45) #6
  call void @llvm.lifetime.end(i64 4020, i8* %44) #6
  call void @llvm.lifetime.end(i64 4020, i8* %43) #6
  call void @llvm.lifetime.end(i64 4020, i8* %42) #6
  call void @llvm.lifetime.end(i64 4020, i8* %41) #6
  br label %cleanup.cont

cleanup.cont:                                     ; preds = %if.end1002, %delete.notnull106, %if.end101, %entry
  ret void
}

; Function Attrs: uwtable
define void @_ZN20ComputeNonbondedUtil20calc_self_energy_fepEP9nonbonded(%struct.nonbonded* nocapture readonly %params) #0 align 2 {
entry:
  %grouplist_std = alloca [1005 x i32], align 16
  %fixglist_std = alloca [1005 x i32], align 16
  %goodglist_std = alloca [1005 x i32], align 16
  %pairlist_std = alloca [1005 x i32], align 16
  %pairlist2_std = alloca [1005 x i32], align 16
  %pairlistn_std = alloca [1005 x i32], align 16
  %pairlistx_std = alloca [1005 x i32], align 16
  %pairlistm_std = alloca [1005 x i32], align 16
  %0 = load i32* @_ZN20ComputeNonbondedUtil8commOnlyE, align 4, !tbaa !11
  %tobool = icmp eq i32 %0, 0
  br i1 %tobool, label %if.end, label %cleanup.cont

if.end:                                           ; preds = %entry
  %reduction1 = getelementptr inbounds %struct.nonbonded* %params, i64 0, i32 4
  %1 = load double** %reduction1, align 8, !tbaa !48
  %2 = load double* @_ZN20ComputeNonbondedUtil7cutoff2E, align 8, !tbaa !17
  %3 = load double* @_ZN20ComputeNonbondedUtil12groupcutoff2E, align 8, !tbaa !17
  %4 = load double* @_ZN20ComputeNonbondedUtil12dielectric_1E, align 8, !tbaa !17
  %5 = load %class.LJTable** @_ZN20ComputeNonbondedUtil7ljTableE, align 8, !tbaa !1
  %6 = load %class.Molecule** @_ZN20ComputeNonbondedUtil3molE, align 8, !tbaa !1
  %7 = load double** @_ZN20ComputeNonbondedUtil11table_shortE, align 8, !tbaa !1
  %8 = load double* @_ZN20ComputeNonbondedUtil7scalingE, align 8, !tbaa !17
  %9 = load double* @_ZN20ComputeNonbondedUtil7scale14E, align 8, !tbaa !17
  %sub = fsub double 1.000000e+00, %9
  %10 = load double* @_ZN20ComputeNonbondedUtil8r2_deltaE, align 8, !tbaa !17
  %11 = load i32* @_ZN20ComputeNonbondedUtil12r2_delta_expE, align 4, !tbaa !11
  %sub2 = shl i32 %11, 6
  %mul = add i32 %sub2, -8128
  %arrayidx = getelementptr inbounds %struct.nonbonded* %params, i64 0, i32 3, i64 0
  %12 = load i32* %arrayidx, align 4, !tbaa !11
  %arrayidx4 = getelementptr inbounds %struct.nonbonded* %params, i64 0, i32 3, i64 1
  %13 = load i32* %arrayidx4, align 4, !tbaa !11
  %arrayidx5 = getelementptr inbounds %struct.nonbonded* %params, i64 0, i32 0, i64 0
  %14 = load %struct.CompAtom** %arrayidx5, align 8, !tbaa !1
  %arrayidx7 = getelementptr inbounds %struct.nonbonded* %params, i64 0, i32 0, i64 1
  %15 = load %struct.CompAtom** %arrayidx7, align 8, !tbaa !1
  %16 = bitcast [1005 x i32]* %grouplist_std to i8*
  call void @llvm.lifetime.start(i64 4020, i8* %16) #6
  %17 = bitcast [1005 x i32]* %fixglist_std to i8*
  call void @llvm.lifetime.start(i64 4020, i8* %17) #6
  %18 = bitcast [1005 x i32]* %goodglist_std to i8*
  call void @llvm.lifetime.start(i64 4020, i8* %18) #6
  %cmp = icmp slt i32 %13, 1000
  br i1 %cmp, label %cond.end29, label %cond.end29.thread

cond.end29.thread:                                ; preds = %if.end
  %add = add nsw i32 %13, 5
  %19 = sext i32 %add to i64
  %20 = call { i64, i1 } @llvm.umul.with.overflow.i64(i64 %19, i64 4)
  %21 = extractvalue { i64, i1 } %20, 1
  %22 = extractvalue { i64, i1 } %20, 0
  %23 = select i1 %21, i64 -1, i64 %22
  %call = call noalias i8* @_Znam(i64 %23) #8
  %24 = bitcast i8* %call to i32*
  %call14 = call noalias i8* @_Znam(i64 %23) #8
  %25 = bitcast i8* %call14 to i32*
  %call25 = call noalias i8* @_Znam(i64 %23) #8
  %26 = bitcast i8* %call25 to i32*
  br label %for.body.lr.ph

cond.end29:                                       ; preds = %if.end
  %arraydecay = getelementptr inbounds [1005 x i32]* %grouplist_std, i64 0, i64 0
  %arraydecay11 = getelementptr inbounds [1005 x i32]* %fixglist_std, i64 0, i64 0
  %arraydecay22 = getelementptr inbounds [1005 x i32]* %goodglist_std, i64 0, i64 0
  %cmp31791 = icmp sgt i32 %13, 0
  br i1 %cmp31791, label %for.body.lr.ph, label %if.end52

for.body.lr.ph:                                   ; preds = %cond.end29, %cond.end29.thread
  %cond30862 = phi i32* [ %26, %cond.end29.thread ], [ %arraydecay22, %cond.end29 ]
  %cond602604860 = phi i32* [ %24, %cond.end29.thread ], [ %arraydecay, %cond.end29 ]
  %cond19606858 = phi i32* [ %25, %cond.end29.thread ], [ %arraydecay11, %cond.end29 ]
  br label %for.body

for.body:                                         ; preds = %for.inc, %for.body.lr.ph
  %indvars.iv850 = phi i64 [ 0, %for.body.lr.ph ], [ %indvars.iv.next851, %for.inc ]
  %g.0792 = phi i32 [ 0, %for.body.lr.ph ], [ %g.1, %for.inc ]
  %hydrogenGroupSize = getelementptr inbounds %struct.CompAtom* %15, i64 %indvars.iv850, i32 2
  %27 = bitcast [4 x i8]* %hydrogenGroupSize to i32*
  %bf.load = load i32* %27, align 4
  %28 = and i32 %bf.load, 62914560
  %29 = icmp eq i32 %28, 0
  br i1 %29, label %for.inc, label %if.then40

if.then40:                                        ; preds = %for.body
  %inc = add nsw i32 %g.0792, 1
  %idxprom41 = sext i32 %g.0792 to i64
  %arrayidx42 = getelementptr inbounds i32* %cond602604860, i64 %idxprom41
  %30 = trunc i64 %indvars.iv850 to i32
  store i32 %30, i32* %arrayidx42, align 4, !tbaa !11
  br label %for.inc

for.inc:                                          ; preds = %if.then40, %for.body
  %g.1 = phi i32 [ %inc, %if.then40 ], [ %g.0792, %for.body ]
  %indvars.iv.next851 = add nuw nsw i64 %indvars.iv850, 1
  %lftr.wideiv852 = trunc i64 %indvars.iv.next851 to i32
  %exitcond853 = icmp eq i32 %lftr.wideiv852, %13
  br i1 %exitcond853, label %for.end, label %for.body

for.end:                                          ; preds = %for.inc
  %tobool45 = icmp eq i32 %g.1, 0
  br i1 %tobool45, label %if.end52, label %if.then46

if.then46:                                        ; preds = %for.end
  %sub47 = add nsw i32 %g.1, -1
  %idxprom48 = sext i32 %sub47 to i64
  %arrayidx49 = getelementptr inbounds i32* %cond602604860, i64 %idxprom48
  %31 = load i32* %arrayidx49, align 4, !tbaa !11
  %idxprom50 = sext i32 %g.1 to i64
  %arrayidx51 = getelementptr inbounds i32* %cond602604860, i64 %idxprom50
  store i32 %31, i32* %arrayidx51, align 4, !tbaa !11
  br label %if.end52

if.end52:                                         ; preds = %if.then46, %for.end, %cond.end29
  %g.0.lcssa867 = phi i32 [ 0, %for.end ], [ %g.1, %if.then46 ], [ 0, %cond.end29 ]
  %cond19606857866 = phi i32* [ %cond19606858, %for.end ], [ %cond19606858, %if.then46 ], [ %arraydecay11, %cond.end29 ]
  %cond602604859865 = phi i32* [ %cond602604860, %for.end ], [ %cond602604860, %if.then46 ], [ %arraydecay, %cond.end29 ]
  %cond30861864 = phi i32* [ %cond30862, %for.end ], [ %cond30862, %if.then46 ], [ %arraydecay22, %cond.end29 ]
  %32 = load i32* @_ZN20ComputeNonbondedUtil12fixedAtomsOnE, align 4, !tbaa !11
  %tobool53 = icmp eq i32 %32, 0
  br i1 %tobool53, label %if.end103, label %for.cond55.preheader

for.cond55.preheader:                             ; preds = %if.end52
  %cmp56785 = icmp sgt i32 %g.0.lcssa867, 0
  br i1 %cmp56785, label %for.body57, label %if.then75

for.body57:                                       ; preds = %for.inc71, %for.cond55.preheader
  %indvars.iv846 = phi i64 [ %indvars.iv.next847, %for.inc71 ], [ 0, %for.cond55.preheader ]
  %fixg.0787 = phi i32 [ %fixg.1, %for.inc71 ], [ 0, %for.cond55.preheader ]
  %all_fixed.0786 = phi i32 [ %all_fixed.1, %for.inc71 ], [ 1, %for.cond55.preheader ]
  %arrayidx59 = getelementptr inbounds i32* %cond602604859865, i64 %indvars.iv846
  %33 = load i32* %arrayidx59, align 4, !tbaa !11
  %idxprom60 = sext i32 %33 to i64
  %groupFixed = getelementptr inbounds %struct.CompAtom* %15, i64 %idxprom60, i32 2
  %34 = bitcast [4 x i8]* %groupFixed to i32*
  %bf.load62 = load i32* %34, align 4
  %bf.clear64 = and i32 %bf.load62, 134217728
  %tobool65 = icmp eq i32 %bf.clear64, 0
  br i1 %tobool65, label %if.then66, label %for.inc71

if.then66:                                        ; preds = %for.body57
  %inc67 = add nsw i32 %fixg.0787, 1
  %idxprom68 = sext i32 %fixg.0787 to i64
  %arrayidx69 = getelementptr inbounds i32* %cond19606857866, i64 %idxprom68
  store i32 %33, i32* %arrayidx69, align 4, !tbaa !11
  br label %for.inc71

for.inc71:                                        ; preds = %if.then66, %for.body57
  %all_fixed.1 = phi i32 [ %all_fixed.0786, %for.body57 ], [ 0, %if.then66 ]
  %fixg.1 = phi i32 [ %fixg.0787, %for.body57 ], [ %inc67, %if.then66 ]
  %indvars.iv.next847 = add nuw nsw i64 %indvars.iv846, 1
  %lftr.wideiv848 = trunc i64 %indvars.iv.next847 to i32
  %exitcond849 = icmp eq i32 %lftr.wideiv848, %g.0.lcssa867
  br i1 %exitcond849, label %for.end73, label %for.body57

for.end73:                                        ; preds = %for.inc71
  %tobool74 = icmp eq i32 %all_fixed.1, 0
  br i1 %tobool74, label %if.end95, label %if.then75

if.then75:                                        ; preds = %for.end73, %for.cond55.preheader
  %arraydecay76 = getelementptr inbounds [1005 x i32]* %grouplist_std, i64 0, i64 0
  %cmp77 = icmp eq i32* %cond602604859865, %arraydecay76
  br i1 %cmp77, label %if.end79, label %delete.notnull

delete.notnull:                                   ; preds = %if.then75
  %35 = bitcast i32* %cond602604859865 to i8*
  call void @_ZdaPv(i8* %35) #7
  br label %if.end79

if.end79:                                         ; preds = %delete.notnull, %if.then75
  %arraydecay80 = getelementptr inbounds [1005 x i32]* %fixglist_std, i64 0, i64 0
  %cmp81 = icmp eq i32* %cond19606857866, %arraydecay80
  br i1 %cmp81, label %if.end86, label %delete.notnull84

delete.notnull84:                                 ; preds = %if.end79
  %36 = bitcast i32* %cond19606857866 to i8*
  call void @_ZdaPv(i8* %36) #7
  br label %if.end86

if.end86:                                         ; preds = %delete.notnull84, %if.end79
  %arraydecay87 = getelementptr inbounds [1005 x i32]* %goodglist_std, i64 0, i64 0
  %cmp88 = icmp eq i32* %cond30861864, %arraydecay87
  br i1 %cmp88, label %cleanup.cont, label %delete.notnull91

delete.notnull91:                                 ; preds = %if.end86
  %37 = bitcast i32* %cond30861864 to i8*
  call void @_ZdaPv(i8* %37) #7
  br label %cleanup.cont

if.end95:                                         ; preds = %for.end73
  %tobool96 = icmp eq i32 %fixg.1, 0
  br i1 %tobool96, label %if.end103, label %if.then97

if.then97:                                        ; preds = %if.end95
  %sub98 = add nsw i32 %fixg.1, -1
  %idxprom99 = sext i32 %sub98 to i64
  %arrayidx100 = getelementptr inbounds i32* %cond19606857866, i64 %idxprom99
  %38 = load i32* %arrayidx100, align 4, !tbaa !11
  %idxprom101 = sext i32 %fixg.1 to i64
  %arrayidx102 = getelementptr inbounds i32* %cond19606857866, i64 %idxprom101
  store i32 %38, i32* %arrayidx102, align 4, !tbaa !11
  br label %if.end103

if.end103:                                        ; preds = %if.then97, %if.end95, %if.end52
  %fixg.2609 = phi i32 [ 0, %if.end95 ], [ %fixg.1, %if.then97 ], [ 0, %if.end52 ]
  %39 = bitcast [1005 x i32]* %pairlist_std to i8*
  call void @llvm.lifetime.start(i64 4020, i8* %39) #6
  %40 = bitcast [1005 x i32]* %pairlist2_std to i8*
  call void @llvm.lifetime.start(i64 4020, i8* %40) #6
  %41 = bitcast [1005 x i32]* %pairlistn_std to i8*
  call void @llvm.lifetime.start(i64 4020, i8* %41) #6
  %42 = bitcast [1005 x i32]* %pairlistx_std to i8*
  call void @llvm.lifetime.start(i64 4020, i8* %42) #6
  %43 = bitcast [1005 x i32]* %pairlistm_std to i8*
  call void @llvm.lifetime.start(i64 4020, i8* %43) #6
  br i1 %cmp, label %cond.true149, label %cond.false151

cond.true149:                                     ; preds = %if.end103
  %arraydecay106 = getelementptr inbounds [1005 x i32]* %pairlist_std, i64 0, i64 0
  %arraydecay117 = getelementptr inbounds [1005 x i32]* %pairlist2_std, i64 0, i64 0
  %arraydecay128 = getelementptr inbounds [1005 x i32]* %pairlistn_std, i64 0, i64 0
  %arraydecay139 = getelementptr inbounds [1005 x i32]* %pairlistx_std, i64 0, i64 0
  %arraydecay150 = getelementptr inbounds [1005 x i32]* %pairlistm_std, i64 0, i64 0
  br label %cond.end157

cond.false151:                                    ; preds = %if.end103
  %add108 = add nsw i32 %13, 5
  %44 = sext i32 %add108 to i64
  %45 = call { i64, i1 } @llvm.umul.with.overflow.i64(i64 %44, i64 4)
  %46 = extractvalue { i64, i1 } %45, 1
  %47 = extractvalue { i64, i1 } %45, 0
  %48 = select i1 %46, i64 -1, i64 %47
  %call109 = call noalias i8* @_Znam(i64 %48) #8
  %49 = bitcast i8* %call109 to i32*
  %call120 = call noalias i8* @_Znam(i64 %48) #8
  %50 = bitcast i8* %call120 to i32*
  %call131 = call noalias i8* @_Znam(i64 %48) #8
  %51 = bitcast i8* %call131 to i32*
  %call142 = call noalias i8* @_Znam(i64 %48) #8
  %52 = bitcast i8* %call142 to i32*
  %call153 = call noalias i8* @_Znam(i64 %48) #8
  %53 = bitcast i8* %call153 to i32*
  br label %cond.end157

cond.end157:                                      ; preds = %cond.false151, %cond.true149
  %cond147628 = phi i32* [ %arraydecay139, %cond.true149 ], [ %52, %cond.false151 ]
  %cond125614616626 = phi i32* [ %arraydecay117, %cond.true149 ], [ %50, %cond.false151 ]
  %cond114610612618624 = phi i32* [ %arraydecay106, %cond.true149 ], [ %49, %cond.false151 ]
  %cond136620622 = phi i32* [ %arraydecay128, %cond.true149 ], [ %51, %cond.false151 ]
  %cond158 = phi i32* [ %arraydecay150, %cond.true149 ], [ %53, %cond.false151 ]
  %arrayidx159 = getelementptr inbounds %struct.nonbonded* %params, i64 0, i32 1, i64 0
  %54 = load %class.Vector** %arrayidx159, align 8, !tbaa !1
  %arrayidx161 = getelementptr inbounds %struct.nonbonded* %params, i64 0, i32 1, i64 1
  %55 = load %class.Vector** %arrayidx161, align 8, !tbaa !1
  %sub162 = add nsw i32 %12, -1
  %mul163 = mul nsw i32 %sub162, %13
  %div = sdiv i32 %mul163, 2
  %minPart = getelementptr inbounds %struct.nonbonded* %params, i64 0, i32 8
  %56 = load i32* %minPart, align 4, !tbaa !50
  %mul164 = mul nsw i32 %56, %div
  %numParts = getelementptr inbounds %struct.nonbonded* %params, i64 0, i32 10
  %57 = load i32* %numParts, align 4, !tbaa !51
  %div165 = sdiv i32 %mul164, %57
  %maxPart = getelementptr inbounds %struct.nonbonded* %params, i64 0, i32 9
  %58 = load i32* %maxPart, align 4, !tbaa !52
  %mul166 = mul nsw i32 %58, %div
  %div168 = sdiv i32 %mul166, %57
  %cmp171755 = icmp sgt i32 %sub162, 0
  br i1 %cmp171755, label %for.body172.lr.ph, label %for.end993

for.body172.lr.ph:                                ; preds = %cond.end157
  %all_exclusions.i = getelementptr inbounds %class.Molecule* %6, i64 0, i32 1
  %atomVdwType.i599 = getelementptr inbounds %class.Molecule* %6, i64 0, i32 4
  %table.i = getelementptr inbounds %class.LJTable* %5, i64 0, i32 1
  %table_dim.i = getelementptr inbounds %class.LJTable* %5, i64 0, i32 2
  %sub.ptr.rhs.cast549 = ptrtoint i32* %cond125614616626 to i64
  %sub.ptr.rhs.cast609 = ptrtoint i32* %cond147628 to i64
  %sub.ptr.rhs.cast616 = ptrtoint i32* %cond158 to i64
  %sub918 = fsub double 1.000000e+00, %sub
  %sub.ptr.rhs.cast = ptrtoint i32* %cond30861864 to i64
  %sub.ptr.rhs.cast367 = ptrtoint i32* %cond114610612618624 to i64
  br label %for.body172

for.body172:                                      ; preds = %for.inc991, %for.body172.lr.ph
  %exclChecksum.0773 = phi i32 [ 0, %for.body172.lr.ph ], [ %exclChecksum.10, %for.inc991 ]
  %i.0762 = phi i32 [ 0, %for.body172.lr.ph ], [ %inc992, %for.inc991 ]
  %j_hgroup.0761 = phi i32 [ 0, %for.body172.lr.ph ], [ %j_hgroup.3, %for.inc991 ]
  %g_lower.0760 = phi i32 [ 0, %for.body172.lr.ph ], [ %g_lower.4, %for.inc991 ]
  %fixg_lower.0759 = phi i32 [ 0, %for.body172.lr.ph ], [ %fixg_lower.4, %for.inc991 ]
  %pairlistindex.0758 = phi i32 [ 0, %for.body172.lr.ph ], [ %pairlistindex.3, %for.inc991 ]
  %pairlistoffset.0757 = phi i32 [ 0, %for.body172.lr.ph ], [ %pairlistoffset.2, %for.inc991 ]
  %pairCount.0756 = phi i32 [ 0, %for.body172.lr.ph ], [ %pairCount.3, %for.inc991 ]
  %59 = phi <2 x double> [ zeroinitializer, %for.body172.lr.ph ], [ %318, %for.inc991 ]
  %60 = phi <2 x double> [ zeroinitializer, %for.body172.lr.ph ], [ %319, %for.inc991 ]
  %61 = phi <2 x double> [ zeroinitializer, %for.body172.lr.ph ], [ %320, %for.inc991 ]
  %62 = phi <2 x double> [ zeroinitializer, %for.body172.lr.ph ], [ %321, %for.inc991 ]
  %63 = phi <2 x double> [ zeroinitializer, %for.body172.lr.ph ], [ %322, %for.inc991 ]
  %idxprom173 = sext i32 %i.0762 to i64
  %id = getelementptr inbounds %struct.CompAtom* %14, i64 %idxprom173, i32 2
  %64 = bitcast [4 x i8]* %id to i32*
  %bf.load175 = load i32* %64, align 4
  %bf.clear176 = and i32 %bf.load175, 4194303
  %idxprom.i630 = zext i32 %bf.clear176 to i64
  %65 = load %class.ExclusionCheck** %all_exclusions.i, align 8, !tbaa !53
  %min = getelementptr inbounds %class.ExclusionCheck* %65, i64 %idxprom.i630, i32 0
  %66 = load i32* %min, align 4, !tbaa !55
  %max = getelementptr inbounds %class.ExclusionCheck* %65, i64 %idxprom.i630, i32 1
  %67 = load i32* %max, align 4, !tbaa !57
  %flags = getelementptr inbounds %class.ExclusionCheck* %65, i64 %idxprom.i630, i32 2
  %68 = load i8** %flags, align 8, !tbaa !58
  %idx.ext = sext i32 %66 to i64
  %x = getelementptr inbounds %struct.CompAtom* %14, i64 %idxprom173, i32 0, i32 0
  %69 = load double* %x, align 8, !tbaa !59
  %y = getelementptr inbounds %struct.CompAtom* %14, i64 %idxprom173, i32 0, i32 1
  %70 = load double* %y, align 8, !tbaa !61
  %z = getelementptr inbounds %struct.CompAtom* %14, i64 %idxprom173, i32 0, i32 2
  %71 = load double* %z, align 8, !tbaa !62
  %arrayidx181 = getelementptr inbounds %class.Vector* %54, i64 %idxprom173
  %72 = and i32 %bf.load175, 62914560
  %73 = icmp eq i32 %72, 0
  br i1 %73, label %if.else, label %if.then193

if.then193:                                       ; preds = %for.body172
  %bf.lshr196 = lshr i32 %bf.load175, 22
  %bf.clear197 = and i32 %bf.lshr196, 7
  %tobool198 = icmp eq i32 %bf.clear197, 0
  br i1 %tobool198, label %if.end219, label %if.then199

if.then199:                                       ; preds = %if.then193
  %sub205 = sub nsw i32 %sub162, %i.0762
  %mul206 = mul nsw i32 %bf.clear197, %sub205
  %add207 = add nsw i32 %mul206, %pairCount.0756
  %sub208 = add nsw i32 %bf.clear197, -1
  %mul209 = mul nsw i32 %sub208, %bf.clear197
  %div210.neg = sdiv i32 %mul209, -2
  %sub211 = add i32 %add207, %div210.neg
  %cmp212 = icmp sge i32 %pairCount.0756, %div165
  %cmp214 = icmp slt i32 %pairCount.0756, %div168
  %or.cond588 = and i1 %cmp212, %cmp214
  br i1 %or.cond588, label %if.end219, label %if.then215

if.then215:                                       ; preds = %if.then199
  %add217 = add nsw i32 %sub208, %i.0762
  br label %for.inc991

if.end219:                                        ; preds = %if.then199, %if.then193
  %pairCount.1 = phi i32 [ %pairCount.0756, %if.then193 ], [ %sub211, %if.then199 ]
  %74 = load i32* @_ZN20ComputeNonbondedUtil12fixedAtomsOnE, align 4, !tbaa !11
  %tobool220 = icmp eq i32 %74, 0
  br i1 %tobool220, label %land.end, label %land.rhs

land.rhs:                                         ; preds = %if.end219
  %bf.clear224 = and i32 %bf.load175, 134217728
  %tobool225 = icmp ne i32 %bf.clear224, 0
  br label %land.end

land.end:                                         ; preds = %land.rhs, %if.end219
  %75 = phi i1 [ false, %if.end219 ], [ %tobool225, %land.rhs ]
  br i1 %tobool198, label %if.end254, label %if.then231

if.then231:                                       ; preds = %land.end
  %add236 = add nsw i32 %bf.clear197, %i.0762
  %cmp237637 = icmp slt i32 %g_lower.0760, %g.0.lcssa867
  br i1 %cmp237637, label %land.rhs238.lr.ph, label %while.cond244.loopexit

land.rhs238.lr.ph:                                ; preds = %if.then231
  %76 = sext i32 %g_lower.0760 to i64
  br label %land.rhs238

while.cond:                                       ; preds = %land.rhs238
  %77 = trunc i64 %indvars.iv.next to i32
  %cmp237 = icmp slt i32 %77, %g.0.lcssa867
  br i1 %cmp237, label %land.rhs238, label %while.cond244.loopexit

land.rhs238:                                      ; preds = %while.cond, %land.rhs238.lr.ph
  %indvars.iv = phi i64 [ %76, %land.rhs238.lr.ph ], [ %indvars.iv.next, %while.cond ]
  %g_lower.1638 = phi i32 [ %g_lower.0760, %land.rhs238.lr.ph ], [ %inc243, %while.cond ]
  %arrayidx240 = getelementptr inbounds i32* %cond602604859865, i64 %indvars.iv
  %78 = load i32* %arrayidx240, align 4, !tbaa !11
  %cmp241 = icmp slt i32 %78, %add236
  %indvars.iv.next = add nsw i64 %indvars.iv, 1
  %inc243 = add nsw i32 %g_lower.1638, 1
  br i1 %cmp241, label %while.cond, label %while.cond244.loopexit

while.cond244.loopexit:                           ; preds = %land.rhs238, %while.cond, %if.then231
  %g_lower.1.lcssa = phi i32 [ %g_lower.0760, %if.then231 ], [ %inc243, %while.cond ], [ %g_lower.1638, %land.rhs238 ]
  %cmp245639 = icmp slt i32 %fixg_lower.0759, %fixg.2609
  br i1 %cmp245639, label %land.rhs246.lr.ph, label %if.end254

land.rhs246.lr.ph:                                ; preds = %while.cond244.loopexit
  %79 = sext i32 %fixg_lower.0759 to i64
  br label %land.rhs246

while.cond244:                                    ; preds = %land.rhs246
  %80 = trunc i64 %indvars.iv.next800 to i32
  %cmp245 = icmp slt i32 %80, %fixg.2609
  br i1 %cmp245, label %land.rhs246, label %if.end254

land.rhs246:                                      ; preds = %while.cond244, %land.rhs246.lr.ph
  %indvars.iv799 = phi i64 [ %79, %land.rhs246.lr.ph ], [ %indvars.iv.next800, %while.cond244 ]
  %fixg_lower.1640 = phi i32 [ %fixg_lower.0759, %land.rhs246.lr.ph ], [ %inc252, %while.cond244 ]
  %arrayidx248 = getelementptr inbounds i32* %cond19606857866, i64 %indvars.iv799
  %81 = load i32* %arrayidx248, align 4, !tbaa !11
  %cmp249 = icmp slt i32 %81, %add236
  %indvars.iv.next800 = add nsw i64 %indvars.iv799, 1
  %inc252 = add nsw i32 %fixg_lower.1640, 1
  br i1 %cmp249, label %while.cond244, label %if.end254

if.end254:                                        ; preds = %land.rhs246, %while.cond244, %while.cond244.loopexit, %land.end
  %fixg_lower.2 = phi i32 [ %fixg_lower.0759, %land.end ], [ %fixg_lower.0759, %while.cond244.loopexit ], [ %fixg_lower.1640, %land.rhs246 ], [ %inc252, %while.cond244 ]
  %g_lower.2 = phi i32 [ %g_lower.0760, %land.end ], [ %g_lower.1.lcssa, %while.cond244.loopexit ], [ %g_lower.1.lcssa, %while.cond244 ], [ %g_lower.1.lcssa, %land.rhs246 ]
  %j_hgroup.1 = phi i32 [ %j_hgroup.0761, %land.end ], [ %add236, %while.cond244.loopexit ], [ %add236, %while.cond244 ], [ %add236, %land.rhs246 ]
  %j.1642 = add nsw i32 %i.0762, 1
  %cmp257643 = icmp slt i32 %j.1642, %j_hgroup.1
  br i1 %cmp257643, label %for.body258.lr.ph, label %for.end264

for.body258.lr.ph:                                ; preds = %if.end254
  %82 = add i32 %j_hgroup.1, -1
  %83 = sub i32 %82, %i.0762
  %84 = add i32 %j_hgroup.1, -2
  %85 = sub i32 %84, %i.0762
  %86 = zext i32 %85 to i64
  %87 = add i64 %86, 1
  %end.idx = add i64 %86, 1
  %n.vec = and i64 %87, 8589934584
  %cmp.zero = icmp eq i64 %n.vec, 0
  %cast.crd = trunc i64 %n.vec to i32
  %ind.end = add i32 %cast.crd, %j.1642
  br i1 %cmp.zero, label %middle.block, label %vector.body

vector.body:                                      ; preds = %vector.body, %for.body258.lr.ph
  %index = phi i64 [ %index.next, %vector.body ], [ 0, %for.body258.lr.ph ]
  %88 = trunc i64 %index to i32
  %offset.idx = add i32 %j.1642, %88
  %broadcast.splatinsert898 = insertelement <4 x i32> undef, i32 %offset.idx, i32 0
  %broadcast.splat899 = shufflevector <4 x i32> %broadcast.splatinsert898, <4 x i32> undef, <4 x i32> zeroinitializer
  %induction900 = add <4 x i32> %broadcast.splat899, <i32 0, i32 1, i32 2, i32 3>
  %induction901 = add <4 x i32> %broadcast.splat899, <i32 4, i32 5, i32 6, i32 7>
  %89 = getelementptr inbounds i32* %cond114610612618624, i64 %index
  %90 = bitcast i32* %89 to <4 x i32>*
  store <4 x i32> %induction900, <4 x i32>* %90, align 4
  %.sum904 = or i64 %index, 4
  %91 = getelementptr i32* %cond114610612618624, i64 %.sum904
  %92 = bitcast i32* %91 to <4 x i32>*
  store <4 x i32> %induction901, <4 x i32>* %92, align 4
  %index.next = add i64 %index, 8
  %93 = icmp eq i64 %index.next, %n.vec
  br i1 %93, label %middle.block, label %vector.body, !llvm.loop !75

middle.block:                                     ; preds = %vector.body, %for.body258.lr.ph
  %resume.val = phi i64 [ 0, %for.body258.lr.ph ], [ %n.vec, %vector.body ]
  %resume.val896 = phi i32 [ %j.1642, %for.body258.lr.ph ], [ %ind.end, %vector.body ]
  %cmp.n = icmp eq i64 %end.idx, %resume.val
  br i1 %cmp.n, label %for.cond256.for.end264_crit_edge, label %for.body258

for.body258:                                      ; preds = %for.body258, %middle.block
  %indvars.iv801 = phi i64 [ %indvars.iv.next802, %for.body258 ], [ %resume.val, %middle.block ]
  %j.1645 = phi i32 [ %j.1, %for.body258 ], [ %resume.val896, %middle.block ]
  %indvars.iv.next802 = add nuw nsw i64 %indvars.iv801, 1
  %arrayidx261 = getelementptr inbounds i32* %cond114610612618624, i64 %indvars.iv801
  store i32 %j.1645, i32* %arrayidx261, align 4, !tbaa !11
  %j.1 = add nsw i32 %j.1645, 1
  %lftr.wideiv = trunc i64 %indvars.iv.next802 to i32
  %exitcond = icmp eq i32 %lftr.wideiv, %83
  br i1 %exitcond, label %for.cond256.for.end264_crit_edge, label %for.body258, !llvm.loop !76

for.cond256.for.end264_crit_edge:                 ; preds = %for.body258, %middle.block
  %phitmp = sext i32 %83 to i64
  br label %for.end264

for.end264:                                       ; preds = %for.cond256.for.end264_crit_edge, %if.end254
  %pairlistindex.1.lcssa = phi i64 [ %phitmp, %for.cond256.for.end264_crit_edge ], [ 0, %if.end254 ]
  %add.ptr266 = getelementptr inbounds i32* %cond114610612618624, i64 %pairlistindex.1.lcssa
  %cond271 = select i1 %75, i32* %cond19606857866, i32* %cond602604859865
  %cond276 = select i1 %75, i32 %fixg_lower.2, i32 %g_lower.2
  %cond281 = select i1 %75, i32 %fixg.2609, i32 %g.0.lcssa867
  %cmp282 = icmp slt i32 %cond276, %cond281
  br i1 %cmp282, label %if.then283, label %if.end365

if.then283:                                       ; preds = %for.end264
  %idxprom284 = sext i32 %cond276 to i64
  %arrayidx285 = getelementptr inbounds i32* %cond271, i64 %idxprom284
  %94 = load i32* %arrayidx285, align 4, !tbaa !11
  %idxprom286 = sext i32 %94 to i64
  %x289 = getelementptr inbounds %struct.CompAtom* %15, i64 %idxprom286, i32 0, i32 0
  %95 = load double* %x289, align 8, !tbaa !59
  %y293 = getelementptr inbounds %struct.CompAtom* %15, i64 %idxprom286, i32 0, i32 1
  %96 = load double* %y293, align 8, !tbaa !61
  %z297 = getelementptr inbounds %struct.CompAtom* %15, i64 %idxprom286, i32 0, i32 2
  %97 = load double* %z297, align 8, !tbaa !62
  br label %while.cond298.outer

while.cond298.outer:                              ; preds = %if.then325, %if.then283
  %p_j_z.0.ph = phi double [ %97, %if.then283 ], [ %103, %if.then325 ]
  %p_j_y.0.ph = phi double [ %96, %if.then283 ], [ %102, %if.then325 ]
  %p_j_x.0.ph = phi double [ %95, %if.then283 ], [ %101, %if.then325 ]
  %j2.0.ph = phi i32 [ %94, %if.then283 ], [ %100, %if.then325 ]
  %gli.0.ph = phi i32* [ %cond30861864, %if.then283 ], [ %incdec.ptr, %if.then325 ]
  %g.3.ph = phi i32 [ %cond276, %if.then283 ], [ %inc301, %if.then325 ]
  %98 = sext i32 %g.3.ph to i64
  br label %while.cond298

while.cond298:                                    ; preds = %while.body300, %while.cond298.outer
  %indvars.iv807 = phi i64 [ %98, %while.cond298.outer ], [ %indvars.iv.next808, %while.body300 ]
  %p_j_z.0 = phi double [ %p_j_z.0.ph, %while.cond298.outer ], [ %103, %while.body300 ]
  %p_j_y.0 = phi double [ %p_j_y.0.ph, %while.cond298.outer ], [ %102, %while.body300 ]
  %p_j_x.0 = phi double [ %p_j_x.0.ph, %while.cond298.outer ], [ %101, %while.body300 ]
  %j2.0 = phi i32 [ %j2.0.ph, %while.cond298.outer ], [ %100, %while.body300 ]
  %g.3 = phi i32 [ %g.3.ph, %while.cond298.outer ], [ %inc301, %while.body300 ]
  %99 = trunc i64 %indvars.iv807 to i32
  %cmp299 = icmp slt i32 %99, %cond281
  br i1 %cmp299, label %while.body300, label %while.end327

while.body300:                                    ; preds = %while.cond298
  %indvars.iv.next808 = add nsw i64 %indvars.iv807, 1
  %inc301 = add nsw i32 %g.3, 1
  %arrayidx303 = getelementptr inbounds i32* %cond271, i64 %indvars.iv.next808
  %100 = load i32* %arrayidx303, align 4, !tbaa !11
  %sub304 = fsub double %69, %p_j_x.0
  %mul305 = fmul double %sub304, %sub304
  %idxprom306 = sext i32 %100 to i64
  %x309 = getelementptr inbounds %struct.CompAtom* %15, i64 %idxprom306, i32 0, i32 0
  %101 = load double* %x309, align 8, !tbaa !59
  %sub310 = fsub double %70, %p_j_y.0
  %mul311 = fmul double %sub310, %sub310
  %add312 = fadd double %mul311, %mul305
  %y316 = getelementptr inbounds %struct.CompAtom* %15, i64 %idxprom306, i32 0, i32 1
  %102 = load double* %y316, align 8, !tbaa !61
  %sub317 = fsub double %71, %p_j_z.0
  %mul318 = fmul double %sub317, %sub317
  %add319 = fadd double %mul318, %add312
  %z323 = getelementptr inbounds %struct.CompAtom* %15, i64 %idxprom306, i32 0, i32 2
  %103 = load double* %z323, align 8, !tbaa !62
  %cmp324 = fcmp ugt double %add319, %3
  br i1 %cmp324, label %while.cond298, label %if.then325

if.then325:                                       ; preds = %while.body300
  store i32 %j2.0, i32* %gli.0.ph, align 4, !tbaa !11
  %incdec.ptr = getelementptr inbounds i32* %gli.0.ph, i64 1
  br label %while.cond298.outer

while.end327:                                     ; preds = %while.cond298
  %sub.ptr.lhs.cast = ptrtoint i32* %gli.0.ph to i64
  %sub.ptr.sub = sub i64 %sub.ptr.lhs.cast, %sub.ptr.rhs.cast
  %sub.ptr.div585 = lshr exact i64 %sub.ptr.sub, 2
  %conv328 = trunc i64 %sub.ptr.div585 to i32
  %cmp330651 = icmp sgt i32 %conv328, 0
  br i1 %cmp330651, label %for.body331.lr.ph, label %if.end365

for.body331.lr.ph:                                ; preds = %while.end327
  %104 = sub i64 %sub.ptr.lhs.cast, %sub.ptr.rhs.cast
  %105 = lshr i64 %104, 2
  %106 = trunc i64 %105 to i32
  br label %for.body331

for.body331:                                      ; preds = %cond.end351, %for.body331.lr.ph
  %indvars.iv809 = phi i64 [ 0, %for.body331.lr.ph ], [ %indvars.iv.next810, %cond.end351 ]
  %pli.0653 = phi i32* [ %add.ptr266, %for.body331.lr.ph ], [ %add.ptr361, %cond.end351 ]
  %arrayidx334 = getelementptr inbounds i32* %cond30861864, i64 %indvars.iv809
  %107 = load i32* %arrayidx334, align 4, !tbaa !11
  %idxprom336 = sext i32 %107 to i64
  %nonbondedGroupIsAtom338 = getelementptr inbounds %struct.CompAtom* %15, i64 %idxprom336, i32 2
  %108 = bitcast [4 x i8]* %nonbondedGroupIsAtom338 to i32*
  %bf.load339 = load i32* %108, align 4
  %bf.clear341 = and i32 %bf.load339, 33554432
  %tobool342 = icmp eq i32 %bf.clear341, 0
  br i1 %tobool342, label %cond.false344, label %cond.end351

cond.false344:                                    ; preds = %for.body331
  %bf.lshr349 = lshr i32 %bf.load339, 22
  %bf.clear350 = and i32 %bf.lshr349, 7
  %phitmp586 = zext i32 %bf.clear350 to i64
  br label %cond.end351

cond.end351:                                      ; preds = %cond.false344, %for.body331
  %cond352 = phi i64 [ %phitmp586, %cond.false344 ], [ 1, %for.body331 ]
  store i32 %107, i32* %pli.0653, align 4, !tbaa !11
  %add354 = add nsw i32 %107, 1
  %arrayidx355 = getelementptr inbounds i32* %pli.0653, i64 1
  store i32 %add354, i32* %arrayidx355, align 4, !tbaa !11
  %add356 = add nsw i32 %107, 2
  %arrayidx357 = getelementptr inbounds i32* %pli.0653, i64 2
  store i32 %add356, i32* %arrayidx357, align 4, !tbaa !11
  %add358 = add nsw i32 %107, 3
  %arrayidx359 = getelementptr inbounds i32* %pli.0653, i64 3
  store i32 %add358, i32* %arrayidx359, align 4, !tbaa !11
  %add.ptr361 = getelementptr inbounds i32* %pli.0653, i64 %cond352
  %indvars.iv.next810 = add nuw nsw i64 %indvars.iv809, 1
  %lftr.wideiv811 = trunc i64 %indvars.iv.next810 to i32
  %exitcond812 = icmp eq i32 %lftr.wideiv811, %106
  br i1 %exitcond812, label %if.end365, label %for.body331

if.end365:                                        ; preds = %cond.end351, %while.end327, %for.end264
  %pli.1 = phi i32* [ %add.ptr266, %for.end264 ], [ %add.ptr266, %while.end327 ], [ %add.ptr361, %cond.end351 ]
  %sub.ptr.lhs.cast366 = ptrtoint i32* %pli.1 to i64
  %sub.ptr.sub368 = sub i64 %sub.ptr.lhs.cast366, %sub.ptr.rhs.cast367
  %sub.ptr.div369582 = lshr exact i64 %sub.ptr.sub368, 2
  %conv370 = trunc i64 %sub.ptr.div369582 to i32
  %tobool371 = icmp eq i32 %conv370, 0
  br i1 %tobool371, label %if.end380, label %if.then372

if.then372:                                       ; preds = %if.end365
  %sub373 = shl i64 %sub.ptr.sub368, 30
  %sext583 = add i64 %sub373, -4294967296
  %idxprom374 = ashr exact i64 %sext583, 32
  %arrayidx375 = getelementptr inbounds i32* %cond114610612618624, i64 %idxprom374
  %109 = load i32* %arrayidx375, align 4, !tbaa !11
  %idxprom376 = ashr exact i64 %sub373, 32
  %arrayidx377 = getelementptr inbounds i32* %cond114610612618624, i64 %idxprom376
  store i32 %109, i32* %arrayidx377, align 4, !tbaa !11
  br label %if.end380

if.else:                                          ; preds = %for.body172
  %inc379 = add nsw i32 %pairlistoffset.0757, 1
  br label %if.end380

if.end380:                                        ; preds = %if.else, %if.then372, %if.end365
  %pairCount.2 = phi i32 [ %pairCount.1, %if.then372 ], [ %pairCount.1, %if.end365 ], [ %pairCount.0756, %if.else ]
  %pairlistoffset.1 = phi i32 [ 0, %if.then372 ], [ 0, %if.end365 ], [ %inc379, %if.else ]
  %pairlistindex.2 = phi i32 [ %conv370, %if.then372 ], [ 0, %if.end365 ], [ %pairlistindex.0758, %if.else ]
  %fixg_lower.3 = phi i32 [ %fixg_lower.2, %if.then372 ], [ %fixg_lower.2, %if.end365 ], [ %fixg_lower.0759, %if.else ]
  %g_lower.3 = phi i32 [ %g_lower.2, %if.then372 ], [ %g_lower.2, %if.end365 ], [ %g_lower.0760, %if.else ]
  %j_hgroup.2 = phi i32 [ %j_hgroup.1, %if.then372 ], [ %j_hgroup.1, %if.end365 ], [ %j_hgroup.0761, %if.else ]
  %110 = load i32* @_ZN20ComputeNonbondedUtil12fixedAtomsOnE, align 4, !tbaa !11
  %tobool381 = icmp eq i32 %110, 0
  %bf.load389.pre = load i32* %64, align 4
  br i1 %tobool381, label %land.end387, label %land.rhs382

land.rhs382:                                      ; preds = %if.end380
  %bf.clear385 = and i32 %bf.load389.pre, 67108864
  %tobool386 = icmp ne i32 %bf.clear385, 0
  br label %land.end387

land.end387:                                      ; preds = %land.rhs382, %if.end380
  %111 = phi i1 [ %tobool386, %land.rhs382 ], [ false, %if.end380 ]
  %112 = load double** @_ZN20ComputeNonbondedUtil12lambda_tableE, align 8, !tbaa !1
  %bf.lshr390 = lshr i32 %bf.load389.pre, 28
  %mul391 = mul nsw i32 %bf.lshr390, 6
  %idx.ext392539 = zext i32 %mul391 to i64
  %charge = getelementptr inbounds %struct.CompAtom* %14, i64 %idxprom173, i32 1
  %113 = load float* %charge, align 4, !tbaa !63
  %conv394 = fpext float %113 to double
  %mul395 = fmul double %conv394, 3.320636e+02
  %mul396 = fmul double %8, %mul395
  %mul397 = fmul double %4, %mul396
  %bf.clear400 = and i32 %bf.load389.pre, 4194303
  %idxprom.i598631 = zext i32 %bf.clear400 to i64
  %114 = load i32** %atomVdwType.i599, align 8, !tbaa !64
  %arrayidx.i600 = getelementptr inbounds i32* %114, i64 %idxprom.i598631
  %115 = load i32* %arrayidx.i600, align 4, !tbaa !11
  %116 = load %"struct.LJTable::TableEntry"** %table.i, align 8, !tbaa !65
  %117 = load i32* %table_dim.i, align 4, !tbaa !67
  %conv402 = shl i32 %115, 1
  %mul.i = and i32 %conv402, 131070
  %mul2.i = mul i32 %mul.i, %117
  %idx.ext.i = zext i32 %mul2.i to i64
  %cmp408679 = icmp slt i32 %pairlistoffset.1, %pairlistindex.2
  br i1 %111, label %for.cond407.preheader, label %if.else468

for.cond407.preheader:                            ; preds = %land.end387
  br i1 %cmp408679, label %for.body409.lr.ph, label %if.end547

for.body409.lr.ph:                                ; preds = %for.cond407.preheader
  %118 = sext i32 %pairlistoffset.1 to i64
  br label %for.body409

for.body409:                                      ; preds = %for.inc465, %for.body409.lr.ph
  %indvars.iv822 = phi i64 [ %118, %for.body409.lr.ph ], [ %indvars.iv.next823, %for.inc465 ]
  %exclChecksum.1683 = phi i32 [ %exclChecksum.0773, %for.body409.lr.ph ], [ %exclChecksum.3, %for.inc465 ]
  %pli404.0682 = phi i32* [ %cond125614616626, %for.body409.lr.ph ], [ %pli404.1, %for.inc465 ]
  %plin.0681 = phi i32* [ %cond136620622, %for.body409.lr.ph ], [ %plin.1, %for.inc465 ]
  %arrayidx411 = getelementptr inbounds i32* %cond114610612618624, i64 %indvars.iv822
  %119 = load i32* %arrayidx411, align 4, !tbaa !11
  %idxprom413 = sext i32 %119 to i64
  %x416 = getelementptr inbounds %struct.CompAtom* %15, i64 %idxprom413, i32 0, i32 0
  %120 = load double* %x416, align 8, !tbaa !59
  %sub418 = fsub double %69, %120
  %mul419 = fmul double %sub418, %sub418
  %y424 = getelementptr inbounds %struct.CompAtom* %15, i64 %idxprom413, i32 0, i32 1
  %121 = load double* %y424, align 8, !tbaa !61
  %sub426 = fsub double %70, %121
  %mul427 = fmul double %sub426, %sub426
  %add428 = fadd double %mul419, %mul427
  %z433 = getelementptr inbounds %struct.CompAtom* %15, i64 %idxprom413, i32 0, i32 2
  %122 = load double* %z433, align 8, !tbaa !62
  %sub434 = fsub double %71, %122
  %mul435 = fmul double %sub434, %sub434
  %add436 = fadd double %add428, %mul435
  %atomFixed439 = getelementptr inbounds %struct.CompAtom* %15, i64 %idxprom413, i32 2
  %123 = bitcast [4 x i8]* %atomFixed439 to i32*
  %bf.load440 = load i32* %123, align 4
  %bf.clear442 = and i32 %bf.load440, 67108864
  %tobool443 = icmp ne i32 %bf.clear442, 0
  %cmp444 = fcmp ugt double %add436, %2
  %or.cond589 = or i1 %tobool443, %cmp444
  br i1 %or.cond589, label %for.inc465, label %land.lhs.true445

land.lhs.true445:                                 ; preds = %for.body409
  %cmp446 = fcmp ugt double %add436, %10
  br i1 %cmp446, label %if.then450, label %land.lhs.true447

land.lhs.true447:                                 ; preds = %land.lhs.true445
  %inc448 = add nsw i32 %exclChecksum.1683, 1
  %tobool449 = icmp eq i32 %inc448, 0
  br i1 %tobool449, label %if.then450, label %for.inc465

if.then450:                                       ; preds = %land.lhs.true447, %land.lhs.true445
  %exclChecksum.2 = phi i32 [ 0, %land.lhs.true447 ], [ %exclChecksum.1683, %land.lhs.true445 ]
  %bf.clear455 = and i32 %bf.load440, 4194303
  %cmp456 = icmp slt i32 %bf.clear455, %66
  %cmp458 = icmp sgt i32 %bf.clear455, %67
  %or.cond590 = or i1 %cmp456, %cmp458
  br i1 %or.cond590, label %if.else461, label %if.then459

if.then459:                                       ; preds = %if.then450
  %incdec.ptr460 = getelementptr inbounds i32* %pli404.0682, i64 1
  store i32 %119, i32* %pli404.0682, align 4, !tbaa !11
  br label %for.inc465

if.else461:                                       ; preds = %if.then450
  %incdec.ptr462 = getelementptr inbounds i32* %plin.0681, i64 1
  store i32 %119, i32* %plin.0681, align 4, !tbaa !11
  br label %for.inc465

for.inc465:                                       ; preds = %if.else461, %if.then459, %land.lhs.true447, %for.body409
  %plin.1 = phi i32* [ %plin.0681, %for.body409 ], [ %plin.0681, %land.lhs.true447 ], [ %plin.0681, %if.then459 ], [ %incdec.ptr462, %if.else461 ]
  %pli404.1 = phi i32* [ %pli404.0682, %for.body409 ], [ %pli404.0682, %land.lhs.true447 ], [ %incdec.ptr460, %if.then459 ], [ %pli404.0682, %if.else461 ]
  %exclChecksum.3 = phi i32 [ %exclChecksum.1683, %for.body409 ], [ %inc448, %land.lhs.true447 ], [ %exclChecksum.2, %if.then459 ], [ %exclChecksum.2, %if.else461 ]
  %indvars.iv.next823 = add nsw i64 %indvars.iv822, 1
  %lftr.wideiv824 = trunc i64 %indvars.iv.next823 to i32
  %exitcond825 = icmp eq i32 %lftr.wideiv824, %pairlistindex.2
  br i1 %exitcond825, label %if.end547, label %for.body409

if.else468:                                       ; preds = %land.end387
  br i1 %cmp408679, label %if.then471, label %if.end547

if.then471:                                       ; preds = %if.else468
  %idxprom473 = sext i32 %pairlistoffset.1 to i64
  %arrayidx474 = getelementptr inbounds i32* %cond114610612618624, i64 %idxprom473
  %124 = load i32* %arrayidx474, align 4, !tbaa !11
  %idxprom476 = sext i32 %124 to i64
  %x479 = getelementptr inbounds %struct.CompAtom* %15, i64 %idxprom476, i32 0, i32 0
  %125 = load double* %x479, align 8, !tbaa !59
  %y484 = getelementptr inbounds %struct.CompAtom* %15, i64 %idxprom476, i32 0, i32 1
  %126 = load double* %y484, align 8, !tbaa !61
  %z489 = getelementptr inbounds %struct.CompAtom* %15, i64 %idxprom476, i32 0, i32 2
  %127 = load double* %z489, align 8, !tbaa !62
  br label %while.cond496.outer

while.cond496.outer:                              ; preds = %if.else536, %if.then471
  %idxprom476.pn.ph = phi i64 [ %idxprom476, %if.then471 ], [ %idxprom505, %if.else536 ]
  %p_j_z485.0.ph = phi double [ %127, %if.then471 ], [ %133, %if.else536 ]
  %p_j_y480.0.ph = phi double [ %126, %if.then471 ], [ %132, %if.else536 ]
  %p_j_x475.0.ph = phi double [ %125, %if.then471 ], [ %131, %if.else536 ]
  %j2472.0.ph = phi i32 [ %124, %if.then471 ], [ %130, %if.else536 ]
  %k469.0.ph = phi i32 [ %pairlistoffset.1, %if.then471 ], [ %inc499, %if.else536 ]
  %plin.2.ph = phi i32* [ %cond136620622, %if.then471 ], [ %incdec.ptr537, %if.else536 ]
  %pli404.2.ph = phi i32* [ %cond125614616626, %if.then471 ], [ %pli404.2.ph662, %if.else536 ]
  %exclChecksum.4.ph = phi i32 [ %exclChecksum.0773, %if.then471 ], [ %exclChecksum.5, %if.else536 ]
  br label %while.cond496.outer655

while.cond496.outer655:                           ; preds = %if.then534, %while.cond496.outer
  %idxprom476.pn.ph656 = phi i64 [ %idxprom505, %if.then534 ], [ %idxprom476.pn.ph, %while.cond496.outer ]
  %p_j_z485.0.ph657 = phi double [ %133, %if.then534 ], [ %p_j_z485.0.ph, %while.cond496.outer ]
  %p_j_y480.0.ph658 = phi double [ %132, %if.then534 ], [ %p_j_y480.0.ph, %while.cond496.outer ]
  %p_j_x475.0.ph659 = phi double [ %131, %if.then534 ], [ %p_j_x475.0.ph, %while.cond496.outer ]
  %j2472.0.ph660 = phi i32 [ %130, %if.then534 ], [ %j2472.0.ph, %while.cond496.outer ]
  %k469.0.ph661 = phi i32 [ %inc499, %if.then534 ], [ %k469.0.ph, %while.cond496.outer ]
  %pli404.2.ph662 = phi i32* [ %incdec.ptr535, %if.then534 ], [ %pli404.2.ph, %while.cond496.outer ]
  %exclChecksum.4.ph663 = phi i32 [ %exclChecksum.5, %if.then534 ], [ %exclChecksum.4.ph, %while.cond496.outer ]
  br label %while.cond496.outer664

while.cond496.outer664:                           ; preds = %land.lhs.true527, %while.cond496.outer655
  %idxprom476.pn.ph665 = phi i64 [ %idxprom505, %land.lhs.true527 ], [ %idxprom476.pn.ph656, %while.cond496.outer655 ]
  %p_j_z485.0.ph666 = phi double [ %133, %land.lhs.true527 ], [ %p_j_z485.0.ph657, %while.cond496.outer655 ]
  %p_j_y480.0.ph667 = phi double [ %132, %land.lhs.true527 ], [ %p_j_y480.0.ph658, %while.cond496.outer655 ]
  %p_j_x475.0.ph668 = phi double [ %131, %land.lhs.true527 ], [ %p_j_x475.0.ph659, %while.cond496.outer655 ]
  %j2472.0.ph669 = phi i32 [ %130, %land.lhs.true527 ], [ %j2472.0.ph660, %while.cond496.outer655 ]
  %k469.0.ph670 = phi i32 [ %inc499, %land.lhs.true527 ], [ %k469.0.ph661, %while.cond496.outer655 ]
  %exclChecksum.4.ph671 = phi i32 [ %inc528, %land.lhs.true527 ], [ %exclChecksum.4.ph663, %while.cond496.outer655 ]
  %128 = sext i32 %k469.0.ph670 to i64
  br label %while.cond496

while.cond496:                                    ; preds = %while.body498, %while.cond496.outer664
  %indvars.iv818 = phi i64 [ %128, %while.cond496.outer664 ], [ %indvars.iv.next819, %while.body498 ]
  %idxprom476.pn = phi i64 [ %idxprom476.pn.ph665, %while.cond496.outer664 ], [ %idxprom505, %while.body498 ]
  %p_j_z485.0 = phi double [ %p_j_z485.0.ph666, %while.cond496.outer664 ], [ %133, %while.body498 ]
  %p_j_y480.0 = phi double [ %p_j_y480.0.ph667, %while.cond496.outer664 ], [ %132, %while.body498 ]
  %p_j_x475.0 = phi double [ %p_j_x475.0.ph668, %while.cond496.outer664 ], [ %131, %while.body498 ]
  %j2472.0 = phi i32 [ %j2472.0.ph669, %while.cond496.outer664 ], [ %130, %while.body498 ]
  %k469.0 = phi i32 [ %k469.0.ph670, %while.cond496.outer664 ], [ %inc499, %while.body498 ]
  %129 = trunc i64 %indvars.iv818 to i32
  %cmp497 = icmp slt i32 %129, %pairlistindex.2
  br i1 %cmp497, label %while.body498, label %if.end547

while.body498:                                    ; preds = %while.cond496
  %atom2490.0.in.in.in = getelementptr inbounds %struct.CompAtom* %15, i64 %idxprom476.pn, i32 2
  %atom2490.0.in.in = bitcast [4 x i8]* %atom2490.0.in.in.in to i32*
  %atom2490.0.in = load i32* %atom2490.0.in.in, align 4
  %atom2490.0 = and i32 %atom2490.0.in, 4194303
  %indvars.iv.next819 = add nsw i64 %indvars.iv818, 1
  %inc499 = add nsw i32 %k469.0, 1
  %arrayidx501 = getelementptr inbounds i32* %cond114610612618624, i64 %indvars.iv.next819
  %130 = load i32* %arrayidx501, align 4, !tbaa !11
  %sub503 = fsub double %69, %p_j_x475.0
  %mul504 = fmul double %sub503, %sub503
  %idxprom505 = sext i32 %130 to i64
  %x508 = getelementptr inbounds %struct.CompAtom* %15, i64 %idxprom505, i32 0, i32 0
  %131 = load double* %x508, align 8, !tbaa !59
  %sub510 = fsub double %70, %p_j_y480.0
  %mul511 = fmul double %sub510, %sub510
  %add512 = fadd double %mul511, %mul504
  %y516 = getelementptr inbounds %struct.CompAtom* %15, i64 %idxprom505, i32 0, i32 1
  %132 = load double* %y516, align 8, !tbaa !61
  %sub517 = fsub double %71, %p_j_z485.0
  %mul518 = fmul double %sub517, %sub517
  %add519 = fadd double %mul518, %add512
  %z523 = getelementptr inbounds %struct.CompAtom* %15, i64 %idxprom505, i32 0, i32 2
  %133 = load double* %z523, align 8, !tbaa !62
  %cmp524 = fcmp ugt double %add519, %2
  br i1 %cmp524, label %while.cond496, label %land.lhs.true525

land.lhs.true525:                                 ; preds = %while.body498
  %cmp526 = fcmp ugt double %add519, %10
  br i1 %cmp526, label %if.then530, label %land.lhs.true527

land.lhs.true527:                                 ; preds = %land.lhs.true525
  %inc528 = add nsw i32 %exclChecksum.4.ph671, 1
  %tobool529 = icmp eq i32 %inc528, 0
  br i1 %tobool529, label %if.then530, label %while.cond496.outer664

if.then530:                                       ; preds = %land.lhs.true527, %land.lhs.true525
  %exclChecksum.5 = phi i32 [ 0, %land.lhs.true527 ], [ %exclChecksum.4.ph671, %land.lhs.true525 ]
  %cmp531 = icmp slt i32 %atom2490.0, %66
  %cmp533 = icmp sgt i32 %atom2490.0, %67
  %or.cond591 = or i1 %cmp531, %cmp533
  br i1 %or.cond591, label %if.else536, label %if.then534

if.then534:                                       ; preds = %if.then530
  %incdec.ptr535 = getelementptr inbounds i32* %pli404.2.ph662, i64 1
  store i32 %j2472.0, i32* %pli404.2.ph662, align 4, !tbaa !11
  br label %while.cond496.outer655

if.else536:                                       ; preds = %if.then530
  %incdec.ptr537 = getelementptr inbounds i32* %plin.2.ph, i64 1
  store i32 %j2472.0, i32* %plin.2.ph, align 4, !tbaa !11
  br label %while.cond496.outer

if.end547:                                        ; preds = %while.cond496, %if.else468, %for.inc465, %for.cond407.preheader
  %plin.4 = phi i32* [ %cond136620622, %if.else468 ], [ %cond136620622, %for.cond407.preheader ], [ %plin.2.ph, %while.cond496 ], [ %plin.1, %for.inc465 ]
  %pli404.4 = phi i32* [ %cond125614616626, %if.else468 ], [ %cond125614616626, %for.cond407.preheader ], [ %pli404.2.ph662, %while.cond496 ], [ %pli404.1, %for.inc465 ]
  %exclChecksum.7 = phi i32 [ %exclChecksum.0773, %if.else468 ], [ %exclChecksum.0773, %for.cond407.preheader ], [ %exclChecksum.4.ph671, %while.cond496 ], [ %exclChecksum.3, %for.inc465 ]
  %sub.ptr.lhs.cast548 = ptrtoint i32* %pli404.4 to i64
  %sub.ptr.sub550 = sub i64 %sub.ptr.lhs.cast548, %sub.ptr.rhs.cast549
  %sub.ptr.div551540 = lshr exact i64 %sub.ptr.sub550, 2
  %conv552 = trunc i64 %sub.ptr.div551540 to i32
  %tobool553 = icmp eq i32 %conv552, 0
  br i1 %tobool553, label %for.cond562.preheader, label %if.then554

if.then554:                                       ; preds = %if.end547
  %sub555 = shl i64 %sub.ptr.sub550, 30
  %sext580 = add i64 %sub555, -4294967296
  %idxprom556 = ashr exact i64 %sext580, 32
  %arrayidx557 = getelementptr inbounds i32* %cond125614616626, i64 %idxprom556
  %134 = load i32* %arrayidx557, align 4, !tbaa !11
  %idxprom558 = ashr exact i64 %sub555, 32
  %arrayidx559 = getelementptr inbounds i32* %cond125614616626, i64 %idxprom558
  store i32 %134, i32* %arrayidx559, align 4, !tbaa !11
  br label %for.cond562.preheader

for.cond562.preheader:                            ; preds = %if.then554, %if.end547
  %cmp563687 = icmp ult i32* %cond136620622, %plin.4
  br i1 %cmp563687, label %land.lhs.true564, label %for.cond571.loopexit

land.lhs.true564:                                 ; preds = %for.body566, %for.cond562.preheader
  %exclChecksum.8690 = phi i32 [ %dec, %for.body566 ], [ %exclChecksum.7, %for.cond562.preheader ]
  %plix.0689 = phi i32* [ %incdec.ptr567, %for.body566 ], [ %cond147628, %for.cond562.preheader ]
  %pln.0688 = phi i32* [ %incdec.ptr569, %for.body566 ], [ %cond136620622, %for.cond562.preheader ]
  %135 = load i32* %pln.0688, align 4, !tbaa !11
  %cmp565 = icmp slt i32 %135, %j_hgroup.2
  br i1 %cmp565, label %for.body566, label %for.cond571.loopexit

for.body566:                                      ; preds = %land.lhs.true564
  %incdec.ptr567 = getelementptr inbounds i32* %plix.0689, i64 1
  store i32 %135, i32* %plix.0689, align 4, !tbaa !11
  %dec = add nsw i32 %exclChecksum.8690, -1
  %incdec.ptr569 = getelementptr inbounds i32* %pln.0688, i64 1
  %cmp563 = icmp ult i32* %incdec.ptr569, %plin.4
  br i1 %cmp563, label %land.lhs.true564, label %for.cond571.loopexit

for.cond571.loopexit:                             ; preds = %for.body566, %land.lhs.true564, %for.cond562.preheader
  %exclChecksum.8.lcssa = phi i32 [ %exclChecksum.7, %for.cond562.preheader ], [ %dec, %for.body566 ], [ %exclChecksum.8690, %land.lhs.true564 ]
  %plix.0.lcssa = phi i32* [ %cond147628, %for.cond562.preheader ], [ %incdec.ptr567, %for.body566 ], [ %plix.0689, %land.lhs.true564 ]
  %pln.0.lcssa = phi i32* [ %cond136620622, %for.cond562.preheader ], [ %incdec.ptr569, %for.body566 ], [ %pln.0688, %land.lhs.true564 ]
  %cmp572694 = icmp sgt i32 %conv552, 0
  br i1 %cmp572694, label %land.lhs.true573, label %for.cond585.loopexit

land.lhs.true573:                                 ; preds = %for.body577, %for.cond571.loopexit
  %indvars.iv832 = phi i64 [ %indvars.iv.next833, %for.body577 ], [ 0, %for.cond571.loopexit ]
  %exclChecksum.9697 = phi i32 [ %dec581, %for.body577 ], [ %exclChecksum.8.lcssa, %for.cond571.loopexit ]
  %plix.1696 = phi i32* [ %incdec.ptr580, %for.body577 ], [ %plix.0.lcssa, %for.cond571.loopexit ]
  %k561.0695 = phi i32 [ %inc583, %for.body577 ], [ 0, %for.cond571.loopexit ]
  %arrayidx575 = getelementptr inbounds i32* %cond125614616626, i64 %indvars.iv832
  %136 = load i32* %arrayidx575, align 4, !tbaa !11
  %cmp576 = icmp slt i32 %136, %j_hgroup.2
  br i1 %cmp576, label %for.body577, label %for.cond585.loopexit

for.body577:                                      ; preds = %land.lhs.true573
  %incdec.ptr580 = getelementptr inbounds i32* %plix.1696, i64 1
  store i32 %136, i32* %plix.1696, align 4, !tbaa !11
  %dec581 = add nsw i32 %exclChecksum.9697, -1
  %indvars.iv.next833 = add nuw nsw i64 %indvars.iv832, 1
  %inc583 = add nsw i32 %k561.0695, 1
  %137 = trunc i64 %indvars.iv.next833 to i32
  %cmp572 = icmp slt i32 %137, %conv552
  br i1 %cmp572, label %land.lhs.true573, label %for.cond585.loopexit

for.cond585.loopexit:                             ; preds = %for.body577, %land.lhs.true573, %for.cond571.loopexit
  %exclChecksum.9.lcssa = phi i32 [ %exclChecksum.8.lcssa, %for.cond571.loopexit ], [ %dec581, %for.body577 ], [ %exclChecksum.9697, %land.lhs.true573 ]
  %plix.1.lcssa = phi i32* [ %plix.0.lcssa, %for.cond571.loopexit ], [ %incdec.ptr580, %for.body577 ], [ %plix.1696, %land.lhs.true573 ]
  %k561.0.lcssa = phi i32 [ 0, %for.cond571.loopexit ], [ %inc583, %for.body577 ], [ %k561.0695, %land.lhs.true573 ]
  %cmp586701 = icmp slt i32 %k561.0.lcssa, %conv552
  br i1 %cmp586701, label %for.body587.lr.ph, label %for.end607

for.body587.lr.ph:                                ; preds = %for.cond585.loopexit
  %138 = sext i32 %k561.0.lcssa to i64
  %139 = sub i64 %sub.ptr.lhs.cast548, %sub.ptr.rhs.cast549
  %140 = lshr i64 %139, 2
  %141 = trunc i64 %140 to i32
  br label %for.body587

for.body587:                                      ; preds = %for.inc605, %for.body587.lr.ph
  %indvars.iv834 = phi i64 [ %138, %for.body587.lr.ph ], [ %indvars.iv.next835, %for.inc605 ]
  %plin.5705 = phi i32* [ %plin.4, %for.body587.lr.ph ], [ %plin.6, %for.inc605 ]
  %plix.2704 = phi i32* [ %plix.1.lcssa, %for.body587.lr.ph ], [ %plix.3, %for.inc605 ]
  %plim.0703 = phi i32* [ %cond158, %for.body587.lr.ph ], [ %plim.1, %for.inc605 ]
  %arrayidx590 = getelementptr inbounds i32* %cond125614616626, i64 %indvars.iv834
  %142 = load i32* %arrayidx590, align 4, !tbaa !11
  %idxprom592 = sext i32 %142 to i64
  %id594 = getelementptr inbounds %struct.CompAtom* %15, i64 %idxprom592, i32 2
  %143 = bitcast [4 x i8]* %id594 to i32*
  %bf.load595 = load i32* %143, align 4
  %bf.clear596 = and i32 %bf.load595, 4194303
  %idxprom597579 = zext i32 %bf.clear596 to i64
  %add.ptr.sum = sub i64 %idxprom597579, %idx.ext
  %arrayidx598 = getelementptr inbounds i8* %68, i64 %add.ptr.sum
  %144 = load i8* %arrayidx598, align 1, !tbaa !68
  %conv599 = sext i8 %144 to i32
  switch i32 %conv599, label %for.inc605 [
    i32 0, label %sw.bb
    i32 1, label %sw.bb601
    i32 2, label %sw.bb603
  ]

sw.bb:                                            ; preds = %for.body587
  %incdec.ptr600 = getelementptr inbounds i32* %plin.5705, i64 1
  store i32 %142, i32* %plin.5705, align 4, !tbaa !11
  br label %for.inc605

sw.bb601:                                         ; preds = %for.body587
  %incdec.ptr602 = getelementptr inbounds i32* %plix.2704, i64 1
  store i32 %142, i32* %plix.2704, align 4, !tbaa !11
  br label %for.inc605

sw.bb603:                                         ; preds = %for.body587
  %incdec.ptr604 = getelementptr inbounds i32* %plim.0703, i64 1
  store i32 %142, i32* %plim.0703, align 4, !tbaa !11
  br label %for.inc605

for.inc605:                                       ; preds = %sw.bb603, %sw.bb601, %sw.bb, %for.body587
  %plim.1 = phi i32* [ %plim.0703, %for.body587 ], [ %incdec.ptr604, %sw.bb603 ], [ %plim.0703, %sw.bb601 ], [ %plim.0703, %sw.bb ]
  %plix.3 = phi i32* [ %plix.2704, %for.body587 ], [ %plix.2704, %sw.bb603 ], [ %incdec.ptr602, %sw.bb601 ], [ %plix.2704, %sw.bb ]
  %plin.6 = phi i32* [ %plin.5705, %for.body587 ], [ %plin.5705, %sw.bb603 ], [ %plin.5705, %sw.bb601 ], [ %incdec.ptr600, %sw.bb ]
  %indvars.iv.next835 = add nsw i64 %indvars.iv834, 1
  %lftr.wideiv836 = trunc i64 %indvars.iv.next835 to i32
  %exitcond837 = icmp eq i32 %lftr.wideiv836, %141
  br i1 %exitcond837, label %for.end607, label %for.body587

for.end607:                                       ; preds = %for.inc605, %for.cond585.loopexit
  %plin.5.lcssa = phi i32* [ %plin.4, %for.cond585.loopexit ], [ %plin.6, %for.inc605 ]
  %plix.2.lcssa = phi i32* [ %plix.1.lcssa, %for.cond585.loopexit ], [ %plix.3, %for.inc605 ]
  %plim.0.lcssa = phi i32* [ %cond158, %for.cond585.loopexit ], [ %plim.1, %for.inc605 ]
  %sub.ptr.lhs.cast608 = ptrtoint i32* %plix.2.lcssa to i64
  %sub.ptr.sub610 = sub i64 %sub.ptr.lhs.cast608, %sub.ptr.rhs.cast609
  %sub.ptr.div611542 = lshr exact i64 %sub.ptr.sub610, 2
  %conv612541 = zext i32 %exclChecksum.9.lcssa to i64
  %sub.ptr.lhs.cast615 = ptrtoint i32* %plim.0.lcssa to i64
  %sub.ptr.sub617 = sub i64 %sub.ptr.lhs.cast615, %sub.ptr.rhs.cast616
  %sub.ptr.div618 = ashr exact i64 %sub.ptr.sub617, 2
  %add613 = add i64 %sub.ptr.div618, %conv612541
  %add620 = add i64 %add613, %sub.ptr.div611542
  %conv621 = trunc i64 %add620 to i32
  %sub.ptr.lhs.cast622 = ptrtoint i32* %plin.5.lcssa to i64
  %sub.ptr.rhs.cast623 = ptrtoint i32* %pln.0.lcssa to i64
  %sub.ptr.sub624 = sub i64 %sub.ptr.lhs.cast622, %sub.ptr.rhs.cast623
  %sub.ptr.div625544 = lshr exact i64 %sub.ptr.sub624, 2
  %conv626 = trunc i64 %sub.ptr.div625544 to i32
  %cmp628709 = icmp sgt i32 %conv626, 0
  br i1 %cmp628709, label %for.body629.lr.ph, label %for.end786

for.body629.lr.ph:                                ; preds = %for.end607
  %x764 = getelementptr inbounds %class.Vector* %arrayidx181, i64 0, i32 0
  %y773 = getelementptr inbounds %class.Vector* %54, i64 %idxprom173, i32 1
  %z780 = getelementptr inbounds %class.Vector* %54, i64 %idxprom173, i32 2
  br label %for.body629

for.body629:                                      ; preds = %for.body629.for.body629_crit_edge, %for.body629.lr.ph
  %145 = phi i32* [ %114, %for.body629.lr.ph ], [ %.pre, %for.body629.for.body629_crit_edge ]
  %indvars.iv838 = phi i64 [ 0, %for.body629.lr.ph ], [ %indvars.iv.next839, %for.body629.for.body629_crit_edge ]
  %146 = phi <2 x double> [ %59, %for.body629.lr.ph ], [ %201, %for.body629.for.body629_crit_edge ]
  %147 = phi <2 x double> [ %60, %for.body629.lr.ph ], [ %207, %for.body629.for.body629_crit_edge ]
  %148 = phi <2 x double> [ %61, %for.body629.lr.ph ], [ %226, %for.body629.for.body629_crit_edge ]
  %149 = phi <2 x double> [ %62, %for.body629.lr.ph ], [ %193, %for.body629.for.body629_crit_edge ]
  %150 = phi <2 x double> [ %63, %for.body629.lr.ph ], [ %214, %for.body629.for.body629_crit_edge ]
  %arrayidx632 = getelementptr inbounds i32* %pln.0.lcssa, i64 %indvars.iv838
  %151 = load i32* %arrayidx632, align 4, !tbaa !11
  %idx.ext633 = sext i32 %151 to i64
  %x636 = getelementptr inbounds %struct.CompAtom* %15, i64 %idx.ext633, i32 0, i32 0
  %152 = load double* %x636, align 8, !tbaa !59
  %sub637 = fsub double %69, %152
  %mul639 = fmul double %sub637, %sub637
  %y641 = getelementptr inbounds %struct.CompAtom* %15, i64 %idx.ext633, i32 0, i32 1
  %153 = load double* %y641, align 8, !tbaa !61
  %sub642 = fsub double %70, %153
  %mul643 = fmul double %sub642, %sub642
  %add644 = fadd double %mul639, %mul643
  %z646 = getelementptr inbounds %struct.CompAtom* %15, i64 %idx.ext633, i32 0, i32 2
  %154 = load double* %z646, align 8, !tbaa !62
  %sub647 = fsub double %71, %154
  %mul648 = fmul double %sub647, %sub647
  %add649 = fadd double %add644, %mul648
  %conv650 = fptrunc double %add649 to float
  %155 = bitcast float %conv650 to i32
  %shr = ashr i32 %155, 17
  %add652 = add nsw i32 %shr, %mul
  %id653 = getelementptr inbounds %struct.CompAtom* %15, i64 %idx.ext633, i32 2
  %156 = bitcast [4 x i8]* %id653 to i32*
  %bf.load654 = load i32* %156, align 4
  %bf.clear655 = and i32 %bf.load654, 4194303
  %idxprom.i594634 = zext i32 %bf.clear655 to i64
  %arrayidx.i596 = getelementptr inbounds i32* %145, i64 %idxprom.i594634
  %157 = load i32* %arrayidx.i596, align 4, !tbaa !11
  %conv.i597 = zext i32 %157 to i64
  %conv657 = shl nuw nsw i64 %conv.i597, 1
  %mul658 = and i64 %conv657, 131070
  %mul661 = shl nsw i32 %add652, 4
  %idx.ext662 = sext i32 %mul661 to i64
  %add.ptr663 = getelementptr inbounds double* %7, i64 %idx.ext662
  %158 = load double* %add.ptr663, align 8, !tbaa !17
  %add.ptr663.sum563 = or i64 %idx.ext662, 4
  %add.ptr668 = getelementptr inbounds double* %7, i64 %add.ptr663.sum563
  %159 = load double* %add.ptr668, align 8, !tbaa !17
  %add.ptr663.sum564 = or i64 %idx.ext662, 8
  %add.ptr673 = getelementptr inbounds double* %7, i64 %add.ptr663.sum564
  %160 = load double* %add.ptr673, align 8, !tbaa !17
  %and = and i32 %155, -131072
  %charge676 = getelementptr inbounds %struct.CompAtom* %15, i64 %idx.ext633, i32 1
  %161 = load float* %charge676, align 4, !tbaa !63
  %conv677 = fpext float %161 to double
  %mul678 = fmul double %mul397, %conv677
  %162 = bitcast i32 %and to float
  %conv680 = fpext float %162 to double
  %sub681 = fsub double %add649, %conv680
  %bf.lshr684 = lshr i32 %bf.load654, 28
  %mul685 = shl nuw nsw i32 %bf.lshr684, 1
  %idxprom686565 = zext i32 %mul685 to i64
  %add.ptr393.sum566 = add i64 %idxprom686565, %idx.ext392539
  %arrayidx687 = getelementptr inbounds double* %112, i64 %add.ptr393.sum566
  %163 = load double* %arrayidx687, align 8, !tbaa !17
  %add689567 = or i32 %mul685, 1
  %idxprom690568 = zext i32 %add689567 to i64
  %add.ptr393.sum569 = add i64 %idxprom690568, %idx.ext392539
  %arrayidx691 = getelementptr inbounds double* %112, i64 %add.ptr393.sum569
  %164 = load double* %arrayidx691, align 8, !tbaa !17
  %add.ptr.i.sum635 = add i64 %mul658, %idx.ext.i
  %A693 = getelementptr inbounds %"struct.LJTable::TableEntry"* %116, i64 %add.ptr.i.sum635, i32 0
  %165 = load double* %A693, align 8, !tbaa !69
  %mul694 = fmul double %8, %165
  %B696 = getelementptr inbounds %"struct.LJTable::TableEntry"* %116, i64 %add.ptr.i.sum635, i32 1
  %166 = load double* %B696, align 8, !tbaa !71
  %mul697 = fmul double %8, %166
  %mul698 = fmul double %158, %mul694
  %mul699 = fmul double %159, %mul697
  %sub700 = fsub double %mul698, %mul699
  %add.ptr663.sum570 = or i64 %idx.ext662, 3
  %arrayidx701 = getelementptr inbounds double* %7, i64 %add.ptr663.sum570
  %167 = load double* %arrayidx701, align 8, !tbaa !17
  %mul702 = fmul double %mul694, %167
  %add.ptr668.sum571 = or i64 %idx.ext662, 7
  %arrayidx703 = getelementptr inbounds double* %7, i64 %add.ptr668.sum571
  %168 = load double* %arrayidx703, align 8, !tbaa !17
  %mul704 = fmul double %mul697, %168
  %sub705 = fsub double %mul702, %mul704
  %add.ptr663.sum572 = or i64 %idx.ext662, 2
  %arrayidx706 = getelementptr inbounds double* %7, i64 %add.ptr663.sum572
  %169 = load double* %arrayidx706, align 8, !tbaa !17
  %mul707 = fmul double %mul694, %169
  %add.ptr668.sum573 = or i64 %idx.ext662, 6
  %arrayidx708 = getelementptr inbounds double* %7, i64 %add.ptr668.sum573
  %170 = load double* %arrayidx708, align 8, !tbaa !17
  %mul709 = fmul double %mul697, %170
  %sub710 = fsub double %mul707, %mul709
  %add.ptr663.sum574 = or i64 %idx.ext662, 1
  %arrayidx711 = getelementptr inbounds double* %7, i64 %add.ptr663.sum574
  %171 = load double* %arrayidx711, align 8, !tbaa !17
  %mul712 = fmul double %mul694, %171
  %add.ptr668.sum575 = or i64 %idx.ext662, 5
  %arrayidx713 = getelementptr inbounds double* %7, i64 %add.ptr668.sum575
  %172 = load double* %arrayidx713, align 8, !tbaa !17
  %mul714 = fmul double %mul697, %172
  %sub715 = fsub double %mul712, %mul714
  %mul716 = fmul double %sub681, %sub705
  %add717 = fadd double %mul716, %sub710
  %mul726 = fmul double %160, %mul678
  %add.ptr673.sum576 = or i64 %idx.ext662, 11
  %arrayidx727 = getelementptr inbounds double* %7, i64 %add.ptr673.sum576
  %173 = load double* %arrayidx727, align 8, !tbaa !17
  %mul728 = fmul double %mul678, %173
  %add.ptr673.sum577 = or i64 %idx.ext662, 10
  %arrayidx729 = getelementptr inbounds double* %7, i64 %add.ptr673.sum577
  %174 = load double* %arrayidx729, align 8, !tbaa !17
  %mul730 = fmul double %mul678, %174
  %add.ptr673.sum578 = or i64 %idx.ext662, 9
  %arrayidx731 = getelementptr inbounds double* %7, i64 %add.ptr673.sum578
  %175 = load double* %arrayidx731, align 8, !tbaa !17
  %176 = insertelement <2 x double> undef, double %mul678, i32 0
  %177 = insertelement <2 x double> %176, double %add717, i32 1
  %178 = insertelement <2 x double> undef, double %175, i32 0
  %179 = insertelement <2 x double> %178, double %sub681, i32 1
  %180 = fmul <2 x double> %177, %179
  %mul733 = fmul double %sub681, %mul728
  %add734 = fadd double %mul733, %mul730
  %mul735 = fmul double %sub681, %add734
  %181 = insertelement <2 x double> undef, double %mul735, i32 0
  %182 = insertelement <2 x double> %181, double %sub715, i32 1
  %183 = fadd <2 x double> %180, %182
  %184 = insertelement <2 x double> undef, double %sub681, i32 0
  %185 = insertelement <2 x double> %184, double %sub681, i32 1
  %186 = fmul <2 x double> %183, %185
  %187 = insertelement <2 x double> undef, double %mul726, i32 0
  %188 = insertelement <2 x double> %187, double %sub700, i32 1
  %189 = fadd <2 x double> %188, %186
  %190 = insertelement <2 x double> undef, double %163, i32 0
  %191 = insertelement <2 x double> %190, double %164, i32 1
  %192 = fmul <2 x double> %191, %189
  %193 = fadd <2 x double> %149, %192
  %194 = extractelement <2 x double> %189, i32 0
  %add743 = fadd double %sub705, %mul728
  %add744 = fadd double %sub710, %mul730
  %195 = extractelement <2 x double> %180, i32 0
  %add745 = fadd double %sub715, %195
  %mul747 = fmul double %sub681, 3.000000e+00
  %mul748 = fmul double %mul747, %add743
  %mul749 = fmul double %add744, 2.000000e+00
  %add750 = fadd double %mul748, %mul749
  %mul751 = fmul double %sub681, %add750
  %add752 = fadd double %add745, %mul751
  %mul753 = fmul double %163, -2.000000e+00
  %mul754 = fmul double %mul753, %add752
  %mul757 = fmul double %sub637, %mul754
  %196 = extractelement <2 x double> %189, i32 1
  %197 = insertelement <2 x double> undef, double %196, i32 0
  %198 = insertelement <2 x double> %197, double %sub637, i32 1
  %199 = insertelement <2 x double> %190, double %mul757, i32 1
  %200 = fmul <2 x double> %198, %199
  %201 = fadd <2 x double> %146, %200
  %202 = insertelement <2 x double> undef, double %sub642, i32 0
  %203 = insertelement <2 x double> %202, double %sub647, i32 1
  %204 = insertelement <2 x double> undef, double %mul757, i32 0
  %205 = insertelement <2 x double> %204, double %mul757, i32 1
  %206 = fmul <2 x double> %203, %205
  %207 = fadd <2 x double> %147, %206
  %208 = load double* %x764, align 8, !tbaa !72
  %add765 = fadd double %208, %mul757
  store double %add765, double* %x764, align 8, !tbaa !72
  %x766 = getelementptr inbounds %class.Vector* %55, i64 %idx.ext633, i32 0
  %mul768 = fmul double %sub642, %mul754
  %209 = insertelement <2 x double> undef, double %164, i32 0
  %210 = insertelement <2 x double> %209, double %sub642, i32 1
  %211 = insertelement <2 x double> undef, double %194, i32 0
  %212 = insertelement <2 x double> %211, double %mul768, i32 1
  %213 = fmul <2 x double> %210, %212
  %214 = fadd <2 x double> %150, %213
  %215 = load double* %y773, align 8, !tbaa !73
  %add774 = fadd double %215, %mul768
  store double %add774, double* %y773, align 8, !tbaa !73
  %216 = bitcast double* %x766 to <2 x double>*
  %217 = load <2 x double>* %216, align 8, !tbaa !17
  %218 = insertelement <2 x double> %204, double %mul768, i32 1
  %219 = fsub <2 x double> %217, %218
  %220 = bitcast double* %x766 to <2 x double>*
  store <2 x double> %219, <2 x double>* %220, align 8, !tbaa !17
  %mul777 = fmul double %sub647, %mul754
  %221 = insertelement <2 x double> undef, double %sub647, i32 0
  %222 = insertelement <2 x double> %221, double %sub647, i32 1
  %223 = insertelement <2 x double> undef, double %mul768, i32 0
  %224 = insertelement <2 x double> %223, double %mul777, i32 1
  %225 = fmul <2 x double> %222, %224
  %226 = fadd <2 x double> %148, %225
  %227 = load double* %z780, align 8, !tbaa !74
  %add781 = fadd double %227, %mul777
  store double %add781, double* %z780, align 8, !tbaa !74
  %z782 = getelementptr inbounds %class.Vector* %55, i64 %idx.ext633, i32 2
  %228 = load double* %z782, align 8, !tbaa !74
  %sub783 = fsub double %228, %mul777
  store double %sub783, double* %z782, align 8, !tbaa !74
  %indvars.iv.next839 = add nuw nsw i64 %indvars.iv838, 1
  %lftr.wideiv840 = trunc i64 %indvars.iv.next839 to i32
  %exitcond841 = icmp eq i32 %lftr.wideiv840, %conv626
  br i1 %exitcond841, label %for.end786, label %for.body629.for.body629_crit_edge

for.body629.for.body629_crit_edge:                ; preds = %for.body629
  %.pre = load i32** %atomVdwType.i599, align 8, !tbaa !64
  br label %for.body629

for.end786:                                       ; preds = %for.body629, %for.end607
  %229 = phi <2 x double> [ %59, %for.end607 ], [ %201, %for.body629 ]
  %230 = phi <2 x double> [ %60, %for.end607 ], [ %207, %for.body629 ]
  %231 = phi <2 x double> [ %61, %for.end607 ], [ %226, %for.body629 ]
  %232 = phi <2 x double> [ %62, %for.end607 ], [ %193, %for.body629 ]
  %233 = phi <2 x double> [ %63, %for.end607 ], [ %214, %for.body629 ]
  %conv791 = trunc i64 %sub.ptr.div618 to i32
  %cmp793731 = icmp sgt i32 %conv791, 0
  br i1 %cmp793731, label %for.body794.lr.ph, label %for.inc991

for.body794.lr.ph:                                ; preds = %for.end786
  %x966 = getelementptr inbounds %class.Vector* %arrayidx181, i64 0, i32 0
  %y976 = getelementptr inbounds %class.Vector* %54, i64 %idxprom173, i32 1
  %z984 = getelementptr inbounds %class.Vector* %54, i64 %idxprom173, i32 2
  br label %for.body794

for.body794:                                      ; preds = %for.body794, %for.body794.lr.ph
  %indvars.iv842 = phi i64 [ 0, %for.body794.lr.ph ], [ %indvars.iv.next843, %for.body794 ]
  %234 = phi <2 x double> [ %229, %for.body794.lr.ph ], [ %290, %for.body794 ]
  %235 = phi <2 x double> [ %230, %for.body794.lr.ph ], [ %296, %for.body794 ]
  %236 = phi <2 x double> [ %231, %for.body794.lr.ph ], [ %315, %for.body794 ]
  %237 = phi <2 x double> [ %232, %for.body794.lr.ph ], [ %282, %for.body794 ]
  %238 = phi <2 x double> [ %233, %for.body794.lr.ph ], [ %303, %for.body794 ]
  %arrayidx797 = getelementptr inbounds i32* %cond158, i64 %indvars.iv842
  %239 = load i32* %arrayidx797, align 4, !tbaa !11
  %idx.ext799 = sext i32 %239 to i64
  %x803 = getelementptr inbounds %struct.CompAtom* %15, i64 %idx.ext799, i32 0, i32 0
  %240 = load double* %x803, align 8, !tbaa !59
  %sub804 = fsub double %69, %240
  %mul806 = fmul double %sub804, %sub804
  %y809 = getelementptr inbounds %struct.CompAtom* %15, i64 %idx.ext799, i32 0, i32 1
  %241 = load double* %y809, align 8, !tbaa !61
  %sub810 = fsub double %70, %241
  %mul811 = fmul double %sub810, %sub810
  %add812 = fadd double %mul806, %mul811
  %z815 = getelementptr inbounds %struct.CompAtom* %15, i64 %idx.ext799, i32 0, i32 2
  %242 = load double* %z815, align 8, !tbaa !62
  %sub816 = fsub double %71, %242
  %mul817 = fmul double %sub816, %sub816
  %add818 = fadd double %add812, %mul817
  %conv820 = fptrunc double %add818 to float
  %243 = bitcast float %conv820 to i32
  %shr824 = ashr i32 %243, 17
  %add825 = add nsw i32 %shr824, %mul
  %id827 = getelementptr inbounds %struct.CompAtom* %15, i64 %idx.ext799, i32 2
  %244 = bitcast [4 x i8]* %id827 to i32*
  %bf.load828 = load i32* %244, align 4
  %bf.clear829 = and i32 %bf.load828, 4194303
  %idxprom.i592632 = zext i32 %bf.clear829 to i64
  %245 = load i32** %atomVdwType.i599, align 8, !tbaa !64
  %arrayidx.i593 = getelementptr inbounds i32* %245, i64 %idxprom.i592632
  %246 = load i32* %arrayidx.i593, align 4, !tbaa !11
  %conv.i = zext i32 %246 to i64
  %conv831 = shl nuw nsw i64 %conv.i, 1
  %mul832 = and i64 %conv831, 131070
  %add.ptr834.sum546 = or i64 %mul832, 1
  %mul837 = shl nsw i32 %add825, 4
  %idx.ext838 = sext i32 %mul837 to i64
  %add.ptr839 = getelementptr inbounds double* %7, i64 %idx.ext838
  %247 = load double* %add.ptr839, align 8, !tbaa !17
  %add.ptr839.sum547 = or i64 %idx.ext838, 4
  %add.ptr846 = getelementptr inbounds double* %7, i64 %add.ptr839.sum547
  %248 = load double* %add.ptr846, align 8, !tbaa !17
  %add.ptr839.sum548 = or i64 %idx.ext838, 8
  %add.ptr853 = getelementptr inbounds double* %7, i64 %add.ptr839.sum548
  %249 = load double* %add.ptr853, align 8, !tbaa !17
  %and857 = and i32 %243, -131072
  %charge859 = getelementptr inbounds %struct.CompAtom* %15, i64 %idx.ext799, i32 1
  %250 = load float* %charge859, align 4, !tbaa !63
  %conv860 = fpext float %250 to double
  %mul861 = fmul double %mul397, %conv860
  %251 = bitcast i32 %and857 to float
  %conv864 = fpext float %251 to double
  %sub865 = fsub double %add818, %conv864
  %bf.lshr869 = lshr i32 %bf.load828, 28
  %mul871 = shl nuw nsw i32 %bf.lshr869, 1
  %idxprom872549 = zext i32 %mul871 to i64
  %add.ptr393.sum = add i64 %idxprom872549, %idx.ext392539
  %arrayidx873 = getelementptr inbounds double* %112, i64 %add.ptr393.sum
  %252 = load double* %arrayidx873, align 8, !tbaa !17
  %add876550 = or i32 %mul871, 1
  %idxprom877551 = zext i32 %add876550 to i64
  %add.ptr393.sum552 = add i64 %idxprom877551, %idx.ext392539
  %arrayidx878 = getelementptr inbounds double* %112, i64 %add.ptr393.sum552
  %253 = load double* %arrayidx878, align 8, !tbaa !17
  %add.ptr.i.sum = add i64 %add.ptr834.sum546, %idx.ext.i
  %A880 = getelementptr inbounds %"struct.LJTable::TableEntry"* %116, i64 %add.ptr.i.sum, i32 0
  %254 = load double* %A880, align 8, !tbaa !69
  %mul881 = fmul double %8, %254
  %B883 = getelementptr inbounds %"struct.LJTable::TableEntry"* %116, i64 %add.ptr.i.sum, i32 1
  %255 = load double* %B883, align 8, !tbaa !71
  %mul884 = fmul double %8, %255
  %mul886 = fmul double %247, %mul881
  %mul887 = fmul double %248, %mul884
  %sub888 = fsub double %mul886, %mul887
  %add.ptr839.sum553 = or i64 %idx.ext838, 3
  %arrayidx890 = getelementptr inbounds double* %7, i64 %add.ptr839.sum553
  %256 = load double* %arrayidx890, align 8, !tbaa !17
  %mul891 = fmul double %mul881, %256
  %add.ptr846.sum554 = or i64 %idx.ext838, 7
  %arrayidx892 = getelementptr inbounds double* %7, i64 %add.ptr846.sum554
  %257 = load double* %arrayidx892, align 8, !tbaa !17
  %mul893 = fmul double %mul884, %257
  %sub894 = fsub double %mul891, %mul893
  %add.ptr839.sum555 = or i64 %idx.ext838, 2
  %arrayidx896 = getelementptr inbounds double* %7, i64 %add.ptr839.sum555
  %258 = load double* %arrayidx896, align 8, !tbaa !17
  %mul897 = fmul double %mul881, %258
  %add.ptr846.sum556 = or i64 %idx.ext838, 6
  %arrayidx898 = getelementptr inbounds double* %7, i64 %add.ptr846.sum556
  %259 = load double* %arrayidx898, align 8, !tbaa !17
  %mul899 = fmul double %mul884, %259
  %sub900 = fsub double %mul897, %mul899
  %add.ptr839.sum557 = or i64 %idx.ext838, 1
  %arrayidx902 = getelementptr inbounds double* %7, i64 %add.ptr839.sum557
  %260 = load double* %arrayidx902, align 8, !tbaa !17
  %mul903 = fmul double %mul881, %260
  %add.ptr846.sum558 = or i64 %idx.ext838, 5
  %arrayidx904 = getelementptr inbounds double* %7, i64 %add.ptr846.sum558
  %261 = load double* %arrayidx904, align 8, !tbaa !17
  %mul905 = fmul double %mul884, %261
  %sub906 = fsub double %mul903, %mul905
  %mul908 = fmul double %sub865, %sub894
  %add909 = fadd double %mul908, %sub900
  %mul919 = fmul double %sub918, %mul861
  %mul920 = fmul double %249, %mul919
  %add.ptr853.sum559 = or i64 %idx.ext838, 11
  %arrayidx922 = getelementptr inbounds double* %7, i64 %add.ptr853.sum559
  %262 = load double* %arrayidx922, align 8, !tbaa !17
  %mul923 = fmul double %mul919, %262
  %add.ptr853.sum560 = or i64 %idx.ext838, 10
  %arrayidx925 = getelementptr inbounds double* %7, i64 %add.ptr853.sum560
  %263 = load double* %arrayidx925, align 8, !tbaa !17
  %mul926 = fmul double %mul919, %263
  %add.ptr853.sum561 = or i64 %idx.ext838, 9
  %arrayidx928 = getelementptr inbounds double* %7, i64 %add.ptr853.sum561
  %264 = load double* %arrayidx928, align 8, !tbaa !17
  %265 = insertelement <2 x double> undef, double %mul919, i32 0
  %266 = insertelement <2 x double> %265, double %add909, i32 1
  %267 = insertelement <2 x double> undef, double %264, i32 0
  %268 = insertelement <2 x double> %267, double %sub865, i32 1
  %269 = fmul <2 x double> %266, %268
  %mul931 = fmul double %sub865, %mul923
  %add932 = fadd double %mul931, %mul926
  %mul933 = fmul double %sub865, %add932
  %270 = insertelement <2 x double> undef, double %mul933, i32 0
  %271 = insertelement <2 x double> %270, double %sub906, i32 1
  %272 = fadd <2 x double> %269, %271
  %273 = insertelement <2 x double> undef, double %sub865, i32 0
  %274 = insertelement <2 x double> %273, double %sub865, i32 1
  %275 = fmul <2 x double> %272, %274
  %276 = insertelement <2 x double> undef, double %mul920, i32 0
  %277 = insertelement <2 x double> %276, double %sub888, i32 1
  %278 = fadd <2 x double> %277, %275
  %279 = insertelement <2 x double> undef, double %252, i32 0
  %280 = insertelement <2 x double> %279, double %253, i32 1
  %281 = fmul <2 x double> %280, %278
  %282 = fadd <2 x double> %237, %281
  %283 = extractelement <2 x double> %278, i32 0
  %add941 = fadd double %sub894, %mul923
  %add942 = fadd double %sub900, %mul926
  %284 = extractelement <2 x double> %269, i32 0
  %add943 = fadd double %sub906, %284
  %mul946 = fmul double %sub865, 3.000000e+00
  %mul947 = fmul double %mul946, %add941
  %mul948 = fmul double %add942, 2.000000e+00
  %add949 = fadd double %mul947, %mul948
  %mul950 = fmul double %sub865, %add949
  %add951 = fadd double %add943, %mul950
  %mul953 = fmul double %252, -2.000000e+00
  %mul954 = fmul double %mul953, %add951
  %mul959 = fmul double %sub804, %mul954
  %285 = extractelement <2 x double> %278, i32 1
  %286 = insertelement <2 x double> undef, double %285, i32 0
  %287 = insertelement <2 x double> %286, double %sub804, i32 1
  %288 = insertelement <2 x double> %279, double %mul959, i32 1
  %289 = fmul <2 x double> %287, %288
  %290 = fadd <2 x double> %234, %289
  %291 = insertelement <2 x double> undef, double %sub810, i32 0
  %292 = insertelement <2 x double> %291, double %sub816, i32 1
  %293 = insertelement <2 x double> undef, double %mul959, i32 0
  %294 = insertelement <2 x double> %293, double %mul959, i32 1
  %295 = fmul <2 x double> %292, %294
  %296 = fadd <2 x double> %235, %295
  %297 = load double* %x966, align 8, !tbaa !72
  %add967 = fadd double %297, %mul959
  store double %add967, double* %x966, align 8, !tbaa !72
  %x968 = getelementptr inbounds %class.Vector* %55, i64 %idx.ext799, i32 0
  %mul971 = fmul double %sub810, %mul954
  %298 = insertelement <2 x double> undef, double %253, i32 0
  %299 = insertelement <2 x double> %298, double %sub810, i32 1
  %300 = insertelement <2 x double> undef, double %283, i32 0
  %301 = insertelement <2 x double> %300, double %mul971, i32 1
  %302 = fmul <2 x double> %299, %301
  %303 = fadd <2 x double> %238, %302
  %304 = load double* %y976, align 8, !tbaa !73
  %add977 = fadd double %304, %mul971
  store double %add977, double* %y976, align 8, !tbaa !73
  %305 = bitcast double* %x968 to <2 x double>*
  %306 = load <2 x double>* %305, align 8, !tbaa !17
  %307 = insertelement <2 x double> %293, double %mul971, i32 1
  %308 = fsub <2 x double> %306, %307
  %309 = bitcast double* %x968 to <2 x double>*
  store <2 x double> %308, <2 x double>* %309, align 8, !tbaa !17
  %mul981 = fmul double %sub816, %mul954
  %310 = insertelement <2 x double> undef, double %sub816, i32 0
  %311 = insertelement <2 x double> %310, double %sub816, i32 1
  %312 = insertelement <2 x double> undef, double %mul971, i32 0
  %313 = insertelement <2 x double> %312, double %mul981, i32 1
  %314 = fmul <2 x double> %311, %313
  %315 = fadd <2 x double> %236, %314
  %316 = load double* %z984, align 8, !tbaa !74
  %add985 = fadd double %316, %mul981
  store double %add985, double* %z984, align 8, !tbaa !74
  %z986 = getelementptr inbounds %class.Vector* %55, i64 %idx.ext799, i32 2
  %317 = load double* %z986, align 8, !tbaa !74
  %sub987 = fsub double %317, %mul981
  store double %sub987, double* %z986, align 8, !tbaa !74
  %indvars.iv.next843 = add nuw nsw i64 %indvars.iv842, 1
  %lftr.wideiv844 = trunc i64 %indvars.iv.next843 to i32
  %exitcond845 = icmp eq i32 %lftr.wideiv844, %conv791
  br i1 %exitcond845, label %for.inc991, label %for.body794

for.inc991:                                       ; preds = %for.body794, %for.end786, %if.then215
  %pairCount.3 = phi i32 [ %sub211, %if.then215 ], [ %pairCount.2, %for.end786 ], [ %pairCount.2, %for.body794 ]
  %pairlistoffset.2 = phi i32 [ %pairlistoffset.0757, %if.then215 ], [ %pairlistoffset.1, %for.end786 ], [ %pairlistoffset.1, %for.body794 ]
  %pairlistindex.3 = phi i32 [ %pairlistindex.0758, %if.then215 ], [ %pairlistindex.2, %for.end786 ], [ %pairlistindex.2, %for.body794 ]
  %fixg_lower.4 = phi i32 [ %fixg_lower.0759, %if.then215 ], [ %fixg_lower.3, %for.end786 ], [ %fixg_lower.3, %for.body794 ]
  %g_lower.4 = phi i32 [ %g_lower.0760, %if.then215 ], [ %g_lower.3, %for.end786 ], [ %g_lower.3, %for.body794 ]
  %j_hgroup.3 = phi i32 [ %j_hgroup.0761, %if.then215 ], [ %j_hgroup.2, %for.end786 ], [ %j_hgroup.2, %for.body794 ]
  %i.1 = phi i32 [ %add217, %if.then215 ], [ %i.0762, %for.end786 ], [ %i.0762, %for.body794 ]
  %exclChecksum.10 = phi i32 [ %exclChecksum.0773, %if.then215 ], [ %conv621, %for.end786 ], [ %conv621, %for.body794 ]
  %318 = phi <2 x double> [ %59, %if.then215 ], [ %229, %for.end786 ], [ %290, %for.body794 ]
  %319 = phi <2 x double> [ %60, %if.then215 ], [ %230, %for.end786 ], [ %296, %for.body794 ]
  %320 = phi <2 x double> [ %61, %if.then215 ], [ %231, %for.end786 ], [ %315, %for.body794 ]
  %321 = phi <2 x double> [ %62, %if.then215 ], [ %232, %for.end786 ], [ %282, %for.body794 ]
  %322 = phi <2 x double> [ %63, %if.then215 ], [ %233, %for.end786 ], [ %303, %for.body794 ]
  %inc992 = add nsw i32 %i.1, 1
  %cmp171 = icmp sgt i32 %sub162, %inc992
  br i1 %cmp171, label %for.body172, label %for.end993

for.end993:                                       ; preds = %for.inc991, %cond.end157
  %exclChecksum.0.lcssa = phi i32 [ 0, %cond.end157 ], [ %exclChecksum.10, %for.inc991 ]
  %323 = phi <2 x double> [ zeroinitializer, %cond.end157 ], [ %318, %for.inc991 ]
  %324 = phi <2 x double> [ zeroinitializer, %cond.end157 ], [ %319, %for.inc991 ]
  %325 = phi <2 x double> [ zeroinitializer, %cond.end157 ], [ %320, %for.inc991 ]
  %326 = phi <2 x double> [ zeroinitializer, %cond.end157 ], [ %321, %for.inc991 ]
  %327 = phi <2 x double> [ zeroinitializer, %cond.end157 ], [ %322, %for.inc991 ]
  %328 = extractelement <2 x double> %326, i32 1
  %329 = extractelement <2 x double> %326, i32 0
  %arraydecay994 = getelementptr inbounds [1005 x i32]* %grouplist_std, i64 0, i64 0
  %cmp995 = icmp eq i32* %cond602604859865, %arraydecay994
  br i1 %cmp995, label %if.end1000, label %delete.notnull998

delete.notnull998:                                ; preds = %for.end993
  %330 = bitcast i32* %cond602604859865 to i8*
  call void @_ZdaPv(i8* %330) #7
  br label %if.end1000

if.end1000:                                       ; preds = %delete.notnull998, %for.end993
  %arraydecay1001 = getelementptr inbounds [1005 x i32]* %fixglist_std, i64 0, i64 0
  %cmp1002 = icmp eq i32* %cond19606857866, %arraydecay1001
  br i1 %cmp1002, label %if.end1007, label %delete.notnull1005

delete.notnull1005:                               ; preds = %if.end1000
  %331 = bitcast i32* %cond19606857866 to i8*
  call void @_ZdaPv(i8* %331) #7
  br label %if.end1007

if.end1007:                                       ; preds = %delete.notnull1005, %if.end1000
  %arraydecay1008 = getelementptr inbounds [1005 x i32]* %goodglist_std, i64 0, i64 0
  %cmp1009 = icmp eq i32* %cond30861864, %arraydecay1008
  br i1 %cmp1009, label %if.end1014, label %delete.notnull1012

delete.notnull1012:                               ; preds = %if.end1007
  %332 = bitcast i32* %cond30861864 to i8*
  call void @_ZdaPv(i8* %332) #7
  br label %if.end1014

if.end1014:                                       ; preds = %delete.notnull1012, %if.end1007
  %arraydecay1015 = getelementptr inbounds [1005 x i32]* %pairlist_std, i64 0, i64 0
  %cmp1016 = icmp eq i32* %cond114610612618624, %arraydecay1015
  br i1 %cmp1016, label %if.end1021, label %delete.notnull1019

delete.notnull1019:                               ; preds = %if.end1014
  %333 = bitcast i32* %cond114610612618624 to i8*
  call void @_ZdaPv(i8* %333) #7
  br label %if.end1021

if.end1021:                                       ; preds = %delete.notnull1019, %if.end1014
  %arraydecay1022 = getelementptr inbounds [1005 x i32]* %pairlist2_std, i64 0, i64 0
  %cmp1023 = icmp eq i32* %cond125614616626, %arraydecay1022
  br i1 %cmp1023, label %if.end1028, label %delete.notnull1026

delete.notnull1026:                               ; preds = %if.end1021
  %334 = bitcast i32* %cond125614616626 to i8*
  call void @_ZdaPv(i8* %334) #7
  br label %if.end1028

if.end1028:                                       ; preds = %delete.notnull1026, %if.end1021
  %arraydecay1029 = getelementptr inbounds [1005 x i32]* %pairlistn_std, i64 0, i64 0
  %cmp1030 = icmp eq i32* %cond136620622, %arraydecay1029
  br i1 %cmp1030, label %if.end1035, label %delete.notnull1033

delete.notnull1033:                               ; preds = %if.end1028
  %335 = bitcast i32* %cond136620622 to i8*
  call void @_ZdaPv(i8* %335) #7
  br label %if.end1035

if.end1035:                                       ; preds = %delete.notnull1033, %if.end1028
  %arraydecay1036 = getelementptr inbounds [1005 x i32]* %pairlistx_std, i64 0, i64 0
  %cmp1037 = icmp eq i32* %cond147628, %arraydecay1036
  br i1 %cmp1037, label %if.end1042, label %delete.notnull1040

delete.notnull1040:                               ; preds = %if.end1035
  %336 = bitcast i32* %cond147628 to i8*
  call void @_ZdaPv(i8* %336) #7
  br label %if.end1042

if.end1042:                                       ; preds = %delete.notnull1040, %if.end1035
  %arraydecay1043 = getelementptr inbounds [1005 x i32]* %pairlistm_std, i64 0, i64 0
  %cmp1044 = icmp eq i32* %cond158, %arraydecay1043
  br i1 %cmp1044, label %if.end1049, label %delete.notnull1047

delete.notnull1047:                               ; preds = %if.end1042
  %337 = bitcast i32* %cond158 to i8*
  call void @_ZdaPv(i8* %337) #7
  br label %if.end1049

if.end1049:                                       ; preds = %delete.notnull1047, %if.end1042
  %conv1050 = sitofp i32 %exclChecksum.0.lcssa to double
  %arrayidx1051 = getelementptr inbounds double* %1, i64 22
  %arrayidx1053 = getelementptr inbounds double* %1, i64 2
  %338 = load double* %1, align 8, !tbaa !17
  %add1056 = fadd double %329, %338
  store double %add1056, double* %1, align 8, !tbaa !17
  %arrayidx1057 = getelementptr inbounds double* %1, i64 25
  %339 = load double* %arrayidx1057, align 8, !tbaa !17
  %add1058 = fadd double %328, %339
  store double %add1058, double* %arrayidx1057, align 8, !tbaa !17
  %340 = bitcast double* %arrayidx1051 to <2 x double>*
  %341 = load <2 x double>* %340, align 8, !tbaa !17
  %342 = insertelement <2 x double> undef, double %conv1050, i32 0
  %343 = shufflevector <2 x double> %342, <2 x double> %327, <2 x i32> <i32 0, i32 2>
  %344 = fadd <2 x double> %343, %341
  %345 = bitcast double* %arrayidx1051 to <2 x double>*
  store <2 x double> %344, <2 x double>* %345, align 8, !tbaa !17
  %346 = bitcast double* %arrayidx1053 to <2 x double>*
  %347 = load <2 x double>* %346, align 8, !tbaa !17
  %348 = fadd <2 x double> %323, %347
  %349 = bitcast double* %arrayidx1053 to <2 x double>*
  store <2 x double> %348, <2 x double>* %349, align 8, !tbaa !17
  %arrayidx1063 = getelementptr inbounds double* %1, i64 4
  %350 = bitcast double* %arrayidx1063 to <2 x double>*
  %351 = load <2 x double>* %350, align 8, !tbaa !17
  %352 = fadd <2 x double> %324, %351
  %353 = bitcast double* %arrayidx1063 to <2 x double>*
  store <2 x double> %352, <2 x double>* %353, align 8, !tbaa !17
  %arrayidx1067 = getelementptr inbounds double* %1, i64 6
  %354 = bitcast double* %arrayidx1067 to <2 x double>*
  %355 = load <2 x double>* %354, align 8, !tbaa !17
  %356 = shufflevector <2 x double> %324, <2 x double> %327, <2 x i32> <i32 0, i32 3>
  %357 = fadd <2 x double> %356, %355
  %358 = bitcast double* %arrayidx1067 to <2 x double>*
  store <2 x double> %357, <2 x double>* %358, align 8, !tbaa !17
  %arrayidx1071 = getelementptr inbounds double* %1, i64 8
  %359 = bitcast double* %arrayidx1071 to <2 x double>*
  %360 = load <2 x double>* %359, align 8, !tbaa !17
  %361 = shufflevector <2 x double> %325, <2 x double> %324, <2 x i32> <i32 0, i32 3>
  %362 = fadd <2 x double> %361, %360
  %363 = bitcast double* %arrayidx1071 to <2 x double>*
  store <2 x double> %362, <2 x double>* %363, align 8, !tbaa !17
  %arrayidx1075 = getelementptr inbounds double* %1, i64 10
  %364 = bitcast double* %arrayidx1075 to <2 x double>*
  %365 = load <2 x double>* %364, align 8, !tbaa !17
  %366 = fadd <2 x double> %325, %365
  %367 = bitcast double* %arrayidx1075 to <2 x double>*
  store <2 x double> %366, <2 x double>* %367, align 8, !tbaa !17
  call void @llvm.lifetime.end(i64 4020, i8* %43) #6
  call void @llvm.lifetime.end(i64 4020, i8* %42) #6
  call void @llvm.lifetime.end(i64 4020, i8* %41) #6
  call void @llvm.lifetime.end(i64 4020, i8* %40) #6
  call void @llvm.lifetime.end(i64 4020, i8* %39) #6
  br label %cleanup.cont

cleanup.cont:                                     ; preds = %if.end1049, %delete.notnull91, %if.end86, %entry
  ret void
}

; Function Attrs: uwtable
define void @_ZN20ComputeNonbondedUtil30calc_pair_energy_fullelect_fepEP9nonbonded(%struct.nonbonded* nocapture readonly %params) #0 align 2 {
entry:
  %grouplist_std = alloca [1005 x i32], align 16
  %fixglist_std = alloca [1005 x i32], align 16
  %goodglist_std = alloca [1005 x i32], align 16
  %pairlist_std = alloca [1005 x i32], align 16
  %pairlist2_std = alloca [1005 x i32], align 16
  %pairlistn_std = alloca [1005 x i32], align 16
  %pairlistx_std = alloca [1005 x i32], align 16
  %pairlistm_std = alloca [1005 x i32], align 16
  %0 = load i32* @_ZN20ComputeNonbondedUtil8commOnlyE, align 4, !tbaa !11
  %tobool = icmp eq i32 %0, 0
  br i1 %tobool, label %if.end, label %cleanup.cont

if.end:                                           ; preds = %entry
  %reduction1 = getelementptr inbounds %struct.nonbonded* %params, i64 0, i32 4
  %1 = load double** %reduction1, align 8, !tbaa !48
  %2 = load double* @_ZN20ComputeNonbondedUtil7cutoff2E, align 8, !tbaa !17
  %3 = load double* @_ZN20ComputeNonbondedUtil12groupcutoff2E, align 8, !tbaa !17
  %4 = load double* @_ZN20ComputeNonbondedUtil12dielectric_1E, align 8, !tbaa !17
  %5 = load %class.LJTable** @_ZN20ComputeNonbondedUtil7ljTableE, align 8, !tbaa !1
  %6 = load %class.Molecule** @_ZN20ComputeNonbondedUtil3molE, align 8, !tbaa !1
  %7 = load double** @_ZN20ComputeNonbondedUtil11table_shortE, align 8, !tbaa !1
  %8 = load double** @_ZN20ComputeNonbondedUtil10slow_tableE, align 8, !tbaa !1
  %9 = load double* @_ZN20ComputeNonbondedUtil7scalingE, align 8, !tbaa !17
  %10 = load double* @_ZN20ComputeNonbondedUtil7scale14E, align 8, !tbaa !17
  %sub = fsub double 1.000000e+00, %10
  %11 = load double* @_ZN20ComputeNonbondedUtil8r2_deltaE, align 8, !tbaa !17
  %12 = load i32* @_ZN20ComputeNonbondedUtil12r2_delta_expE, align 4, !tbaa !11
  %sub2 = shl i32 %12, 6
  %mul = add i32 %sub2, -8128
  %arrayidx = getelementptr inbounds %struct.nonbonded* %params, i64 0, i32 3, i64 0
  %13 = load i32* %arrayidx, align 4, !tbaa !11
  %arrayidx4 = getelementptr inbounds %struct.nonbonded* %params, i64 0, i32 3, i64 1
  %14 = load i32* %arrayidx4, align 4, !tbaa !11
  %arrayidx5 = getelementptr inbounds %struct.nonbonded* %params, i64 0, i32 0, i64 0
  %15 = load %struct.CompAtom** %arrayidx5, align 8, !tbaa !1
  %arrayidx7 = getelementptr inbounds %struct.nonbonded* %params, i64 0, i32 0, i64 1
  %16 = load %struct.CompAtom** %arrayidx7, align 8, !tbaa !1
  %17 = bitcast [1005 x i32]* %grouplist_std to i8*
  call void @llvm.lifetime.start(i64 4020, i8* %17) #6
  %18 = bitcast [1005 x i32]* %fixglist_std to i8*
  call void @llvm.lifetime.start(i64 4020, i8* %18) #6
  %19 = bitcast [1005 x i32]* %goodglist_std to i8*
  call void @llvm.lifetime.start(i64 4020, i8* %19) #6
  %cmp = icmp slt i32 %14, 1000
  br i1 %cmp, label %cond.end29, label %cond.end29.thread

cond.end29.thread:                                ; preds = %if.end
  %add = add nsw i32 %14, 5
  %20 = sext i32 %add to i64
  %21 = call { i64, i1 } @llvm.umul.with.overflow.i64(i64 %20, i64 4)
  %22 = extractvalue { i64, i1 } %21, 1
